(dp1
S''
(lp2
V\u306f\u30fc\u3002
p3
aV\u306b\u3043\u306b
p4
aV\u3075\u3047\uff1f
p5
aV\u3053\u3001\u5b50
p6
aV\u3042\uff01\u3053
p7
aV\u308f\u304b\u3063
p8
aV\u306f\u3041\u2026
p9
aV\u306a\u306b\u306a
p10
aV\u304a\u3084\u3059
p11
aV\u3075\u3075\u3063
p12
aV\u306a\u306b\u3088
p13
aV\u3042\u3042\u3063
p14
aV\u9811\u5f35\u3063
p15
aV\u3069\u3044\u3066
p16
aV\u3046\u3001\u3046
p17
aV\u3069\u3046\u3057
p18
aV\u5f85\u3066\u307e
p19
aV\u4eca\u306f\u305d
p20
aV\u3060\uff5e\u3081
p21
aV\u3048\uff1f\u3069
p22
aV\u3046\u3093\u3046
p23
aV\u306b\u3043\u306b
p24
aV\u7f8e\u4e5f\u3082
p25
aV\u306a\u3001\u306a
p26
aV\u2026\u2026\u3046
p27
aV\u306b\u3043\u306b
p28
aV\u306b\u3001\u306b
p29
aV\u3070\u3063\u3070
p30
aV\u30c0\u30e1\u30c0
p31
aV\u3070\u3044\u3073
p32
aV\u3093\uff1f\u304a
p33
aV\u3075\u3045\u2026
p34
aV\u304a\u307b\u3093
p35
aV\u3093\u3082\u3046
p36
aV\u2026\u2026\u3075
p37
aV\u2026\u2026\u306f
p38
aV\u306b\u3043\u306b
p39
aV\u306b\u3043\u306b
p40
aV\u306b\u3043\u306b
p41
aV\u304a\u3084\u3059
p42
aV\u3093\uff1f\u306a
p43
aV\u3042\u3052\u306a
p44
aV\u306b\u3057\u3057
p45
aV\u3044\u3044\u3093
p46
aV\u4f55\u3088\u30fc
p47
aV\u3046\u3046\u3046
p48
aV\u307f\u3083\u30fc
p49
aV\u30c0\u3001\u30c0
p50
aV\u3048\u3048\u301c
p51
aV\u306b\u3001\u306b
p52
aV\u3044\u3044\u304b
p53
aV\u3046\u3001\u3046
p54
aV\u2026\u2026\u3048
p55
aV\u3046\u3093\u3002
p56
aV\u3093\u3082\u3046
p57
aV\u2026\u2026\u884c
p58
aV\u3080\u3080\uff01
p59
aV\u3058\u3083\u3042
p60
aV\u306b\u3043\u306b
p61
aV\u304a\u306f\u3088
p62
aV\u7f8e\u4e5f\u3082
p63
aV\u3042\u3045\u2026
p64
aV\u3048\u3063\u2026
p65
aV\u304a\u3084\u3059
p66
aV\u306f\u301c\u3044
p67
aV\u305d\u308c\u3058
p68
aV\u3078\uff5e\u3001
p69
aV\u3048\uff1f\u304a
p70
aV\u2026\u2026\u306b
p71
aV\u3046\u30fc\u3093
p72
aV\u3046\uff5e\u2026
p73
aV\u307b\u3089\uff01
p74
aV\u3042\u3041\u2026
p75
aV\u307b\u3001\u672c
p76
aV\u3060\u3001\u8ab0
p77
aV\u5206\u304b\u3063
p78
aV\u305d\u3093\u306a
p79
aV\u3075\uff5e\u3093
p80
aV\u68ee\u5cf6\u5148
p81
aV\u3072\u3083\u3063
p82
aV\u307e\u3063\u305f
p83
aV\u304a\u306f\u3088
p84
aV\u3061\u3087\u3063
p85
aV\u3048\uff1f\u3042
p86
aV\u3093\uff1f\u306b
p87
aV\u306a\u306b\u3088
p88
aV\u304a\u3084\u3059
p89
aV\u306a\u3042\u306b
p90
aV\u304a\u306f\u3088
p91
aV\u304a\u5144\u3061
p92
aV\u3046\u308f\u3041
p93
aV\u3044\u3044\u3093
p94
aV\u306a\u3093\u3068
p95
aV\u304a\u3084\u3059
p96
aV\u3046\u3046\u3046
p97
aV\u305d\u3046\u3058
p98
aV\u3048\u3048\u30fc
p99
aV\u306a\u3001\u4f55
p100
aV\u3088\u304f\u308f
p101
aV\u3075\uff5e\u3093
p102
aV\u3075\u3045\u2026
p103
aV\u3058\u3083\u3063
p104
aV\u3048\uff1f\u3042
p105
aV\u4eca\u306f\u305d
p106
aV\u4f55\u3057\u3066
p107
aV\u3046\u3093\u3046
p108
aV\u304a\u306f\u3088
p109
aV\u3042\u308c\u3042
p110
aV\u3075\u3045\uff5e
p111
aV\u3060\u3063\u305f
p112
aV\u3069\u3001\u3069
p113
aV\u305d\u3001\u305d
p114
aV\u307e\u305f\u307e
p115
aV\u3082\u3046\u77e5
p116
aV\u3048\u3048\u30fc
p117
aV\u3048\uff1f\u3067
p118
aV\u3044\u3044\u306a
p119
aV\u4f55\u3057\u3066
p120
aV\u304a\u306f\u3088
p121
aV\u5927\u4e08\u592b
p122
aV\u304a\u3084\u3059
p123
aV\u304a\u5144\u3061
p124
aV\u3046\u3093\uff01
p125
aV\u305d\u3046\u3060
p126
aV\u3078\u2026\u2026
p127
aV\u3075\u3045\uff5e
p128
aV\u3046\u3093\uff01
p129
aV\u3046\u2026\u2026
p130
aV\u306b\u3043\u306b
p131
aV\u2026\u2026\u672c
p132
aV\u305d\u3046\u306a
p133
aV\u306b\u3043\u306b
p134
aV\u3082\u3057\u304b
p135
aV\u7121\u7406\u3057
p136
aV\u4f55\u3088\uff01
p137
aV\u5927\u4e08\u592b
p138
aV\u3075\u3047\u2026
p139
aV\u3075\uff5e\u3093
p140
aV\u30a2\u30a2\u2026
p141
aV\u7121\u7406
p142
aV\u2026\u2026\u306f
p143
aV\u3046\u3046\u3093
p144
aV\u304a\u306f\u3088
p145
aV\u304a\u3084\u3059
p146
aV\u3080\u3080\u3063
p147
aV\u3042\u3045\u2026
p148
aV\u3078\uff5e\u3063
p149
aV\u68ee\u5cf6\u5148
p150
aV\u306b\u3043\u306b
p151
aV\u3060\u3001\u8ab0
p152
aV\u3084\u3063\u305f
p153
aV\u3048\u30fc\u30fc
p154
aV\u3048\uff1f\u305d
p155
aV\u304a\u3084\u3059
p156
aV\u306b\u3043\u306b
p157
aV\u306b\u3043\u306b
p158
aV\u304a\u3084\u3059
p159
aV\u304a\u3084\u3059
p160
aV\u306a\u308b\u307b
p161
aV\u3046\u3093\u3046
p162
aV\u306b\u3057\u3057
p163
aV\u304a\u306f\u3088
p164
aV\u2026\u2026\u307e
p165
aV\u306b\u3043\u306b
p166
aV\u3046\u3093\u2026
p167
aV\u30b3\u30fc\u30c8
p168
aV\u306f\u3080\u306f
p169
aV\u304a\u3084\u3059
p170
aV\u307f\u3083\u30fc
p171
aV\u304a\u3084\u3059
p172
aV\u3048\u3063\uff01
p173
aV\u304a\u306f\u3088
p174
aV\u3058\u3083\u3042
p175
aV\u304a\u306f\u3088
p176
aV\u3067\u3082\u3001
p177
aV\u305d\u308c\u306f
p178
aV\u2026\u2026\u306a
p179
aV\u306f\u3041\u2026
p180
aV\u3046\u308b\u3055
p181
aV\u3046\u2026\u2026
p182
aV\u304a\u3084\u3059
p183
aV\u4f55\u304c\uff1f
p184
aV\u5225\u306b\u2026
p185
aV\u3058\u3083\u3042
p186
aV\u306b\u3043\u306b
p187
aV\u305f\u3060\u3044
p188
aV\u4f3c\u5408\u308f
p189
aV\u3042\u3001\u305d
p190
aV\u4eca\u5ea6\u7d17
p191
aV\u305d\u3093\u306a
p192
aV\u3067\u3063\u3057
p193
aV\u3042\u307e\u304c
p194
aV\u3046\u30fc\u3093
p195
aV\u3046\u308b\u3055
p196
aV\u304a\u306f\u3088
p197
aV\u304a\u306f\u3088
p198
aV\u3075\u3047\uff1f
p199
aV\u3093\uff1f\u306a
p200
aV\u3048\u30fc\u30fc
p201
aV\u3046\u3093\u3001
p202
aV\u3042\u3001\u30c0
p203
aV\u3042\u308c\uff1f
p204
aV\u3048\u3044\uff01
p205
aV\u2026\u2026\u3046
p206
aV\u3082\u3046\u2026
p207
aV\u307e\u3042\u307e
p208
aV\u3075\u3075\u3063
p209
aV\u3042\u3001\u304a
p210
aV\u3075\u3047\uff1f
p211
aV\u305f\u3063\u3060
p212
aV\u3082\u3046\uff5e
p213
aV\u306b\u3043\u306b
p214
aV\u2026\u2026\u5acc
p215
aV\u306b\u3043\u306b
p216
aV\u3060\u3063\u305f
p217
aV\u304a\u3084\u3059
p218
aV\u305d\u3093\u306a
p219
aV\u4f55\u3067\u3058
p220
aV\u307f\u3083\u30fc
p221
aV\u3055\u3063\u3059
p222
aV\u4eca\u65e5\u306f
p223
aV\u306f\u3041\uff5e
p224
aV\u307b\u3089\u307b
p225
aV\u6700\u8fd1\u306e
p226
aV\u3046\uff5e\uff5e
p227
aV\u3046\uff5e\u3093
p228
aV\u306a\uff5e\u306b
p229
aV\u305d\u3001\u305d
p230
aV\u3048\u3044\u3084
p231
aV\u3046\u3093\u3001
p232
aV\u3042\u3001\u306a
p233
aV\u3082\u3046\uff5e
p234
aV\u307f\u3001\u7f8e
p235
aV\u4eca\u65e5\u306f
p236
aV\u3093\uff1f\u3069
p237
aV\u2026\u2026\u306a
p238
aV\u3082\u3046\u3044
p239
aV\u4f55\u3088\uff01
p240
aV\u3067\u3063\u3057
p241
aV\u9577\u305d\u3046
p242
aV\u3042\u3052\u306a
p243
aV\u306b\u3057\u3057
p244
aV\u7d17\u6c5f\u3061
p245
aV\u3042\uff01\u306b
p246
aV\u3061\u3047\uff5e
p247
aV\u3048\uff1f\u3042
p248
aV\u306b\u3083\u301c
p249
aV\u3046\u3093\u3002
p250
aV\u99ac\u9e7f\u306b
p251
aV\u2026\u2026\u5acc
p252
aV\u4f55\u3057\u3066
p253
aV\u308f\u308f\u308f
p254
aV\u305d\u3063\u304b
p255
aV\u3072\u3083\u3063
p256
aV\u3042\u3042\u3063
p257
aV\u30c0\u30e1\u30c0
p258
aV\u96a0\u3057\u3066
p259
aV\u304a\u3084\u3059
p260
aV\u3046\u3093\u2026
p261
aV\u5927\u4e08\u592b
p262
aV\u3042\u3001\u7f8e
p263
aV\u2026\u2026\u306a
p264
aV\u307e\u3063\u305f
p265
aV\u3058\u3083\u3042
p266
aV\u3046\u3093\u3046
p267
aV\u306f\u304f\u3057
p268
aV\u304a\u304a\u3063
p269
aV\u305d\u308c\u306b
p270
aV\u3042\u308c\uff1f
p271
aV\u2026\u2026\u3075
p272
aV\u306b\u3043\u306b
p273
aV\u308f\u308f\u3063
p274
aV\u305d\u308c\u3058
p275
aV\u304a\u306f\u3088
p276
aV\u96a0\u3057\u3066
p277
aV\u3046\u3093\u3001
p278
aV\u306d\u3048\u306d
p279
aV\u30c0\u30e1\u306a
p280
aV\u306a\u301c\u306b
p281
aV\u306a\u30fc\u306b
p282
aV\u3069\u3001\u3069
p283
aV\u3046\u3093\u3001
p284
aV\u306b\u3043\u306b
p285
aV\u3042\uff01\u306b
p286
aV\u304a\u5144\u3061
p287
aV\u3042\u3001\u306a
p288
aV\u306b\u3083\u301c
p289
aV\u304a\u3084\u3059
p290
aV\u306a\u3001\u4f55
p291
aV\u2026\u2026\u306a
p292
aV\u305d\u308a\u3083
p293
aV\u307f\u3083\u30fc
p294
aV\u3042\u3045\u2026
p295
aV\u3075\uff5e\u3093
p296
aV\u304a\u5144\u3061
p297
aV\u4f55\u3057\u3066
p298
aV\u3046\uff5e\u3093
p299
aV\u3061\u3087\u3001
p300
aV\u3080\u3080\uff01
p301
aV\u3048\uff5e\u3063
p302
aV\u305d\u308c\u3058
p303
aV\u3042\uff01\u305b
p304
aV\u305f\u3060\u3044
p305
aV\u305d\u3046\u304b
p306
aV\u305f\u3063\u3060
p307
aV\u305f\u3063\u3060
p308
aV\u308f\u304b\u3063
p309
aV\u307e\u30fc\u307e
p310
aV\u3042\u3001\u304a
p311
aV\u5225\u306b\u2026
p312
aV\u305d\u3063\u304b
p313
aV\u306b\u3083\u30fc
p314
aV\u3046\u3093\u3001
p315
aV\u306b\u3043\u306b
p316
aV\u304a\u3084\u3059
p317
aV\u3078\uff5e\u3063
p318
aV\u306b\u3043\u306b
p319
aV\u304a\u3084\u3059
p320
aV\u3046\u3093\u3001
p321
aV\u3059\u3063\u3054
p322
aV\u3080\u3080\u3063
p323
aV\u3080\u3080\uff01
p324
aV\u3084\uff01\u3069
p325
aV\u3084\u3063\u305f
p326
aV\u306a\u3093\u3068
p327
aV\u306b\u3043\u306b
p328
aV\u2026\u2026\u4f55
p329
aV\u304a\u3084\u3059
p330
aV\u68ee\u5cf6\u5148
p331
aV\u97f3\u3001\u5c0f
p332
aV\u306b\u3043\u306b
p333
aV\u304a\u306f\u3088
p334
aV\u6700\u8fd1\u306e
p335
aV\u304a\u5144\u3061
p336
aV\u304a\u3084\u3059
p337
aV\u3046\u3093\uff01
p338
aV\u3075\u308f\u301c
p339
aV\u7121\u7406\u3057
p340
aV\u2026\u2026\u304a
p341
aV\u2026\u2026\u306a
p342
aV\u3048\u3001\u3048
p343
aV\u306f\u3041\u2026
p344
aV\u304a\u3084\u3059
p345
aV\u3075\u3047\u2026
p346
aV\u671f\u5f85\u3057
p347
aV\u307e\u30fc\u305d
p348
aV\u305d\u3046\u304b
p349
aV\u3046\u2026\u2026
p350
aV\u305d\u3046\u3060
p351
aV\u8336\u5316\u3055
p352
aV\u3069\u3044\u3066
p353
aV\u3078\uff5e\u3063
p354
aV\u3044\u304f\u3089
p355
aV\u3042\uff01\u7d17
p356
aV\u304a\u306f\u3088
p357
aV\u30bb\u2026\u30bb
p358
aV\u3046\uff5e\u3093
p359
aV\u304a\u306f\u3088
p360
aV\u3048\uff1f\u3059
p361
aV\u306f\u3041\u2026
p362
aV\u3093\u3082\u3046
p363
aV\u306f\u3044\u306f
p364
aV\u3048\u3048\uff5e
p365
aV\u8ab0\uff1f
p366
aV\u3075\u3047\uff1f
p367
aV\u306b\u3043\u306b
p368
aV\u3084\u3063\u305f
p369
aV\u306f\u3044\u306f
p370
aV\u304a\u306f\u3088
p371
aV\u306b\u3043\u306b
p372
aV\u304a\u3084\u3059
p373
aV\u304a\u306f\u3088
p374
aV\u3046\u308b\u3057
p375
aV\u304a\u5144\u3061
p376
aV\u306b\u3043\u306b
p377
aV\u304a\u3084\u3059
p378
aV\u3075\u3045\uff5e
p379
aV\u2026\u2026\u307e
p380
aV\u306b\u3043\u306b
p381
aV\u306d\u3048\u306d
p382
aV\u2026\u2026\u3059
p383
aV\u306b\u3057\u3057
p384
aV\u3075\uff5e\uff5e
p385
aV\u305d\u3063\u304b
p386
aV\u304a\u306f\u3088
p387
aV\u5f85\u3061\u307e
p388
aV\u3042\uff5e\u2026
p389
aV\u3042\u30fc\uff01
p390
aV\u304a\u3084\u3059
p391
aV\u306b\u3083\u301c
p392
aV\u30c0\u30e1\u30c0
p393
aV\u306b\u3043\u306b
p394
aV\u30a2\u30a2\u2026
p395
aV\u3050\u3063\u3058
p396
aV\u3042\u3001\u7f8e
p397
aV\u3075\u30fc\u3093
p398
aV\u308f\u304b\u3063
p399
aV\u307f\u3001\u7f8e
p400
aV\u3093\uff1f\u306a
p401
aV\u304a\u306f\u3088
p402
aV\u3042\u3001\u3046
p403
aV\u306b\u3043\u306b
p404
aV\u304a\u3084\u3059
p405
aV\u3060\u3081\u3060
p406
aV\u306b\u3043\u306b
p407
aV\u3048\u3063\uff01
p408
aV\u3075\u30fc\u3093
p409
aV\u305d\u3063\u304b
p410
aV\u3042\u3063\uff01
p411
aV\u5927\u4e08\u592b
p412
aV\u3084\uff5e\uff5e
p413
aV\u3048\u30fc\u3063
p414
aV\u5f53\u305f\u308a
p415
aV\uff01\uff1f
p416
aV\u3082\u3046\uff5e
p417
aV\u4eca\u5e74\u306e
p418
aV\u307b\u3093\u3068
p419
aV\u3093\uff1f
p420
aV\u3093\uff1f\u306b
p421
aV\u3042\uff5e\u3001
p422
aV\u3048\u3044\u3084
p423
aV\u2026\u2026\u4ed6
p424
aV\u308f\u304b\u3093
p425
aV\u3048\u3063\u2026
p426
aV\u305d\u3046\u3060
p427
aV\u306b\u3043\u306b
p428
aV\u3060\u3001\u8ab0
p429
aV\u3042\u3001\u306f
p430
aV\u304a\u304a\uff5e
p431
aV\u306b\u3043\u306b
p432
aV\u3060\u3063\u305f
p433
aV\u4f55\u2026\u2026
p434
aV\u6700\u8fd1\u306e
p435
aV\u3046\u3093\u3001
p436
aV\u3042\u3001\u304a
p437
aV\u3048\uff1f\u3042
p438
aV\u3042\u3042\u3063
p439
aV\u3075\u3047\uff1f
p440
aV\u304a\u5144\u3061
p441
aV\u5f85\u3061\u307e
p442
aV\u3060\u3001\u5927
p443
aV\u304a\u3001\u304a
p444
aV\u306b\u3043\u306b
p445
aV\u3046\u3093\uff1f
p446
aV\u304a\u5144\u3061
p447
aV\u3042\uff5e\u2026
p448
aV\u3046\u30fc\u3093
p449
aV\u3084\u3063\u305f
p450
aV\u3042\u3001\u307f
p451
aV\u3060\u3001\u8ab0
p452
aV\u3046\u3001\u3046
p453
aV\u3042\uff01\u3053
p454
aV\u3080\u3080\u3063
p455
aV\u3046\uff5e\u2026
p456
aV\u305d\u3046\u304b
p457
aV\u3075\u3047\u2026
p458
aV\u3048\uff1f\u305d
p459
aV\u3046\u3093\u3002
p460
aV\u3042\u3001\u3046
p461
aV\u2026\u2026\u3075
p462
aV\u3046\u3093\u3001
p463
aV\u5e73\u6c17\uff01
p464
aV\u3067\u3001\u30c7
p465
aV\u3048\uff1f\u3067
p466
aV\u3046\u3001\u3046
p467
aV\u3042\u3001\u307f
p468
aV\u306b\u3043\u306b
p469
aV\u304a\u3084\u3059
p470
aV\u3048\uff1f\u3059
p471
aV\u306b\u3043\u306b
p472
aV\u3059\u3063\u3054
p473
aV\u2026\u2026\u4ed6
p474
aV\u308f\u308f\u3063
p475
aV\u30d8\u30de\u3057
p476
aV\u3048\u30fc\u3063
p477
aV\u3042\u3001\u7d17
p478
aV\u3084\u301c\u301c
p479
aV\u3042\u3001\u3046
p480
aV\u3042\u308c\uff1f
p481
aV\u30a2\u30a2\u2026
p482
aV\u6700\u8fd1\u306e
p483
aV\u3046\u3093\u3002
p484
aV\u5927\u4e08\u592b
p485
aV\u3044\u3044\u3093
p486
aV\u2026\u2026\u306b
p487
aV\u3046\u3093\u2026
p488
aV\u306b\u3043\u306b
p489
aV\u3042\u3001\u304a
p490
aV\u2026\u2026\u3075
p491
aV\u307e\u3060\u8a71
p492
aV\u5927\u4e8b\u306a
p493
aV\u2026\u2026\u3046
p494
aV\u3069\u3046\u3057
p495
aV\u3046\u30fc\u3093
p496
aV\u307b\u3089\u307b
p497
aV\u3042\u3041\u2026
p498
aV\u3069\u3001\u3069
p499
aV\u8ab0\uff1f
p500
aV\u3042\u308c\u3042
p501
aV\u4f55\u3067\u3058
p502
aV\u3042\u308c\uff1f
p503
aV\u3080\u3001\u3080
p504
aV\u3046\u3093\u3002
p505
aV\u306f\u30fc\u3044
p506
aV\u30c0\u30e1\u30c0
p507
aV\u3048\uff1f\u3042
p508
aV\u3070\u3063\u3070
p509
aV\u3069\u3046\u3057
p510
aV\u3042\u3001\u3046
p511
aV\u306a\u3093\u3060
p512
aV\u306a\u3001\u4f55
p513
aV\u3048\uff01\uff1f
p514
aV\u7d17\u6c5f\u3061
p515
aV\u3080\u3080\u3063
p516
aV\u3042\u3063\u3001
p517
aV\u3068\u30fc\u30fc
p518
aV\u3082\u3063\u3068
p519
aV\u2026\u2026\u77e5
p520
aV\u306b\u3043\u306b
p521
aV\u9577\u305d\u3046
p522
aV\u3046\u3093\u3002
p523
aV\u304a\u5144\u3061
p524
aV\u3075\u3047\uff1f
p525
aV\u3042\uff01\u306b
p526
aV\u304a\u3084\u3059
p527
aV\u30d7\u30ed\u30ec
p528
aV\u2026\u2026\u306a
p529
aV\u3069\u3057\u305f
p530
aV\u307e\u305f\u307e
p531
aV\u3078\uff5e\u3063
p532
aV\u306a\u3093\u3060
p533
aV\u306b\u3043\u306b
p534
aV\u3048\u3063\uff1f
p535
aV\u3046\u3046\u3046
p536
aV\u2026\u2026\u308f
p537
aV\u306b\u3057\u3057
p538
aV\u3042\u3001\u3042
p539
aV\u3060\uff5e\u3081
p540
aV\u3046\u3093\u3063
p541
aV\u305d\u308a\u3083
p542
aV\u305d\u3063\u304b
p543
aV\u2026\u2026\u305d
p544
aV\u3048\u3063\uff01
p545
aV\u304d\u3083\u301c
p546
aV\u30c0\u30e1\u306a
p547
aV\u2026\u2026\u305d
p548
aV\u307b\u3089\u307b
p549
aV\u3053\u3089\uff5e
p550
aV\u3078\uff5e\u3001
p551
aV\u3082\u3046\u301c
p552
aV\u3069\u3057\u305f
p553
aV\u3042\u3001\u304a
p554
aV\u305d\u3093\u306a
p555
aV\u9055\u3046\u3088
p556
aV\u306b\u3057\u3057
p557
aV\u3048\uff1f\u3042
p558
aV\u51fa\u3066\u3051
p559
aV\u307e\u3063\u305f
p560
aV\u3042\uff01\u3053
p561
aV\u4f55\u3088\u30fc
p562
aV\u2026\u2026\u3075
p563
aV\u3046\u3093
p564
aV\u3060\u3001\u30c0
p565
aV\u307e\u3060\u307e
p566
aV\u53c2\u3063\u305f
p567
aV\u306b\u3043\u306b
p568
aV\u306b\u3043\u306b
p569
aV\u305d\u3093\u306a
p570
aV\u3061\u3047\uff5e
p571
aV\u2026\u2026\u306f
p572
aV\u304a\u306f\u3088
p573
aV\u305d\u308c\u3067
p574
aV\u306b\u3043\u306b
p575
aV\u3042\u308a\u304c
p576
aV\u6700\u8fd1\u306e
p577
aV\u3042\u308a\u304c
p578
aV\u3042\u308a\u304c
p579
aV\u3068\u308a\u3083
p580
aV\u3048\u3044\u3084
p581
aV\u2026\u2026\u304a
p582
aV\u3046\u3093\u3001
p583
aV\u3042\u308a\u304c
p584
aV\u3042\u308a\u304c
p585
aV\u3048\uff1f\u512a
p586
aV\u3042\u308a\u304c
p587
aV\u3042\u308a\u304c
p588
aV\u3067\u3001\u3067
p589
aV\u3042\u308a\u304c
p590
aV\u304a\u306f\u3088
p591
aV\u3067\u3063\u3057
p592
aV\u304a\u306f\u3088
p593
aV\u4f55\u3059\u308b
p594
aV\u3060\u3001\u30c0
p595
aV\u3042\u3001\u3046
p596
aV\u305d\u308c\u306b
p597
aV\u304a\u3084\u3059
p598
aV\u3048\u3063\uff01
p599
aV\u3075\u3047\u2026
p600
aV\u3042\u308a\u304c
p601
aV\u308f\u304b\u3063
p602
aV\u3067\u3001\u7f8e
p603
aV\u3042\u3051\u307e
p604
aV\u3042\u3051\u307e
p605
aV\u3046\u3001\u5618
p606
aV\u3048\uff1f
p607
aV\u2026\u2026\u306f
p608
aV\u3082\u3063\u3068
p609
aV\u3075\u3047\u2026
p610
aV\u7121\u7406
p611
aV\u5927\u4e08\u592b
p612
aV\u2026\u2026\u5f53
p613
aV\u304a\u306f\u3088
p614
aV\u304a\u306f\u3088
p615
aV\u3067\u3057\u3087
p616
aV\u306d\u3047\u3001
p617
aV\u304a\u5144\u3061
p618
aV\u8cd1\u3084\u304b
p619
aV\u304a\u3084\u3059
p620
aV\u304a\u3084\u3059
p621
aV\u306b\u3043\u306b
p622
aV\u308f\u304b\u3063
p623
aV\u2026\u2026\u306f
p624
aV\u5206\u304b\u3063
p625
aV\u306f\u3044\uff01
p626
aV\u304a\u3084\u3059
p627
aV\u3048\uff5e
p628
aV\u3082\u3046\u77e5
p629
aV\u3044\u304f\u3089
p630
aV\u3046\u306b\u3083
p631
aV\u4eca\u65e5\u306f
p632
aV\u2026\u2026\u305d
p633
aV\u3082\u3046\u3044
p634
aV\u306b\u3043\u306b
p635
aV\u30a8\u30c3\u30c1
p636
aV\u306b\u3043\u306b
p637
aV\u304a\u3084\u3059
p638
aV\u3048\u30fc\u30fc
p639
aV\u3046\u306b\u3083
p640
aV\u3082\u3046\u3001
p641
aV\u30c0\u30e1\u306a
p642
aV\u306b\u3057\u3057
p643
aV\u3042\u307e\u304c
p644
aV\u306b\u3057\u3057
p645
aV\u3048\u3078\u3078
p646
aV\u3093\uff1f\u3069
p647
aV\u3082\u3046\u3044
p648
aV\u3093\u3082\u301c
p649
aV\u3048\u30fc\u3063
p650
aV\u304a\u306f\u3088
p651
aV\u2026\u2026\u3046
p652
aV\u304a\u3084\u3059
p653
aV\u3080\u3080\uff01
p654
aV\u3069\u3057\u305f
p655
aV\u3046\u3093\u3002
p656
aV\u306a\u3001\u6ce3
p657
aV\u3078\uff5e\u3001
p658
aV\u306b\u3043\u306b
p659
aV\u306b\u3043\u306b
p660
aV\u305d\u3060\u3088
p661
aV\u3072\u3083\u3063
p662
aV\u672c\u5f53\u3060
p663
aV\u304a\u306f\u3088
p664
aV\u306b\u3057\u3057
p665
aV\u3046\u3093\u3001
p666
aV\u3046\u308b\u3057
p667
aV\u4eca\u65e5\u306f
p668
aV\u3075\u3075\u3063
p669
aV\u77e5\u3089\u306a
p670
aV\u304a\u5144\u3061
p671
aV\u306b\u3083\u301c
p672
aV\u305d\u308c\u304f
p673
aV\u4eca\u65e5\u306f
p674
aV\u306b\u3001\u306b
p675
aV\u3048\u3063\uff01
p676
aV\u304a\u306f\u3088
p677
aV\u306b\u3043\u306b
p678
aV\u3057\u3087\u3046
p679
aV\u306b\u3043\u306b
p680
aV\u304a\u3084\u3059
p681
aV\u304a\u3084\u3059
p682
aV\u5e73\u6c17\uff01
p683
aV\u307b\uff5e\u3089
p684
aV\u305d\u3046\u304b
p685
aV\u2026\u2026\u3075
p686
aV\u4eca\u65e5\u306f
p687
aV\u3082\u30fc\u3001
p688
aV\u5927\u4e08\u592b
p689
aV\u3048\uff1f\u3069
p690
aV\u306f\u3041\uff5e
p691
aV\u306b\u3043\u306b
p692
aV\u3060\u3001\u30c0
p693
aV\u3048\uff1f\u304a
p694
aV\u3093\uff1f\u304a
p695
aV\u2026\u2026\u305d
p696
aV\u3075\u308f\u301c
p697
aV\u304a\u5144\u3061
p698
aV\u3046\uff5e\u2026
p699
aV\u2026\u2026\u3075
p700
aV\u3069\u3001\u3069
p701
aV\u2026\u2026\u306a
p702
aV\u3075\u308f\u301c
p703
aV\u3069\u3001\u3069
p704
aV\u304a\u5144\u3061
p705
aV\u306b\u3043\u306b
p706
aV\u304a\u306f\u3088
p707
aV\u306b\u3043\u306b
p708
aV\u304a\u3084\u3059
p709
aV\u2026\u2026\u305d
p710
aV\u306a\uff5e\u306b
p711
aV\u3075\u3045\u2026
p712
aV\u2026\u2026\u3075
p713
aV\u3082\u3046\u77e5
p714
aV\u3059\u3063\u3054
p715
aV\u4f55\u3088\u30fc
p716
aV\u305d\u3046\u3060
p717
aV\u3067\u3001\u7f8e
p718
aV\u30b3\u30fc\u30c8
p719
aV\u306f\u301c\u3044
p720
aV\u307e\u3093\u307e
p721
aV\u306b\u3043\u306b
p722
aV\u3048\u3063\uff1f
p723
aV\u2026\u2026\u3042
p724
aV\u305d\u308c\u304f
p725
aV\u3048\uff5e
p726
aV\u4eca\u5e74\u306e
p727
aV\u9055\u3046\u3088
p728
aV\u3046\u3046\u2026
p729
aV\u306f\u30fc\u3044
p730
aV\u3078\u2026\u2026
p731
aV\u3069\u3001\u3069
p732
aV\u305d\u3093\u306a
p733
aV\u5931\u6557\u3058
p734
aV\u3069\u3044\u3066
p735
aV\u306b\u3043\u306b
p736
aV\u3046\u3093\u3001
p737
aV\u5acc
aV\u306b\u3083\uff5e
p738
aV\u306a\u306b\u3088
p739
aV\u307f\u3083\u30fc
p740
aV\u307f\u3083\u30fc
p741
aV\u306b\u3043\u306b
p742
aV\u306a\u306b\u3088
p743
aV\u9577\u305d\u3046
p744
aV\u30c0\u3001\u30c0
p745
aV\u3067\u3063\u3057
p746
aV\u3046\u3093\uff01
p747
aV\u306b\u3043\u306b
p748
aV\u306b\u3043\u306b
p749
aV\u3053\u3089\uff5e
p750
aV\u3075\u3075\u3063
p751
aV\u307f\u3083\u30fc
p752
aV\u3060\u3063\u305f
p753
aV\u3042\u3001\u7d17
p754
aV\u3082\u3046\u3001
p755
aV\u3069\u3046\u3057
p756
aV\u3042\u3001\u30c0
p757
aV\u305d\u3046\u306a
p758
aV\u306a\u3001\u4f55
p759
aV\u3046\u3093\u3002
p760
aV\u304a\u3084\u3059
p761
aV\u304a\u306f\u3088
p762
aV\u304a\u3084\u3059
p763
aV\u304a\u3084\u3059
p764
aV\u306f\u3044\uff01
p765
aV\u306a\u3001\u306a
p766
aV\u306a\u306b\u304b
p767
aV\u306b\u3043\u306b
p768
aV\u306b\u3043\u306b
p769
aV\u3046\uff5e\u2026
p770
aV\u3082\u3046\uff01
p771
aV\u305d\u308c\u3058
p772
aV\u3048\u2026\u2026
p773
aV\u2026\u2026\u306f
p774
aV\u3042\u3001\u305d
p775
aV\u3048\uff1f\u3048
p776
aV\u97f3\u3001\u5c0f
p777
aV\u3042\u308c\u3001
p778
aV\u3075\u3047\uff1f
p779
aV\u307e\u305f\u307e
p780
aV\u305d\u3046\u304b
p781
aV\u3080\u3001\u3080
p782
aV\u3075\u3045\uff5e
p783
aV\u304a\u306f\u3088
p784
aV\u304a\u3084\u3059
p785
asV\u3044\u3073\u30fc
p786
(lp787
V\uff01
asV\u3082\u306d\uff01
p788
(lp789
S'EOS'
p790
asV\uff1f\u305d\u3046
p791
(lp792
V\u306a
asV\u30d9\u306b\u306a
p793
(lp794
V\u3063
aV\u3063
asV\u3001\u3082\u3057
p795
(lp796
V\u304b
asV\u3083\u3042\u306d
p797
(lp798
V\uff01
ag790
ag790
ag790
asV\u826f\u3044\u4e8b
p799
(lp800
V\u8a00
aV\u8a00
asV\u4ed6\u306b\u306f
p801
(lp802
V\uff1f
aV\uff1f
aV\uff1f
asV\u65e9\u304f\u5e30
p803
(lp804
V\u308b
asV\u3001\u30e9\u30e1
p805
(lp806
V\u30fc
asV\u56f0\u308b\u3088
p807
(lp808
V\u30fc
asV\u6669\u3054\u98ef
p809
(lp810
V\u3001
asV\u3073\u3063\u304f
p811
(lp812
V\u308a
aV\u308a
aV\u308a
asV\u306a\u7269\u306f
p813
(lp814
V\u30c0
asV\u2026\u2026\u5f53
p815
(lp816
V\u305f
asV\u304f\u308f\u304b
p817
(lp818
V\u3089
aV\u3089
asV\u4e00\u4eba\u3082
p819
(lp820
V\u51fa
aV\u51fa
asV\u3053\u3068\u8a00
p821
(lp822
V\u3044
asV\u304f\u308f\u3051
p823
(lp824
V\u306a
asV\u3083\u3042\u305d
p825
(lp826
V\u3046
asV\uff1f\u305d\u3001
p827
(lp828
V\u305d
aV\u305d
asV\u3093\u3067\uff1f
p829
(lp830
g790
ag790
asV\u3002\u3082\u3046
p831
(lp832
V\u2026
asV\u304a\uff5e\u3001
p833
(lp834
V\u304a
asV\u30f3\u30c8\u30fc
p835
(lp836
V\uff1f
aV\uff1f
aV\uff1f
asV\u3061\u307e\u305b
p837
(lp838
V\uff5e
aV\uff5e
asV\u306d\u3001\u30c1
p839
(lp840
V\u30e3
asV\u5927\u4e8b\u306b
p841
(lp842
V\u3057
aV\u3057
asV\u5927\u4e8b\u306a
p843
(lp844
V\u5927
asV\u3083\u30c0\u30e1
p845
(lp846
V\uff01
asV\u3002\u77ed\u3059
p847
(lp848
V\u304e
asV\u3060\u8a71\u306f
p849
(lp850
V\u7d42
asV\u3083\u3042\u3001
p851
(lp852
V\u305d
aV\u305d
aV\u305d
asV\u4f55\u3088\uff01
p853
(lp854
V\u3075
aV\u3075
asV\u3093\u3001\u3057
p855
(lp856
V\u3087
asV\u3002\u3082\u3063
p857
(lp858
V\u3068
aV\u3068
asV\u3073\u30fc\uff01
p859
(lp860
g790
asV\u3002\u3082\u3061
p861
(lp862
V\u308d
asV\u3093\u3082\u305d
p863
(lp864
V\u3093
asV\u304f\u3060\u3057
p865
(lp866
V\u4eca
asV\u3093\u3082\u3046
p867
(lp868
V\u2026
aV\uff01
aV\u2026
asV\uff01\u3084\u3063
p869
(lp870
V\u3071
aV\u3071
aV\u3071
asV\u3046\u3093\uff01
p871
(lp872
V\u3044
aV\u3044
aV\u3084
aV\u3084
asV\u308b\u308f\u304b
p873
(lp874
V\u3063
aV\u3063
asV\u3075\u3045\u3001
p875
(lp876
V\u53c2
aV\u53c2
asV\u308a\u3067\u2026
p877
(lp878
V\u2026
aV\u2026
asV\u3002\u6b8b\u5ff5
p879
(lp880
V\u3060
asV\u3042\u3084\u3057
p881
(lp882
V\u3044
asV\u3093\u3082\u30a6
p883
(lp884
V\u30e1
asV\u3046\u3093\uff1f
p885
(lp886
V\u3069
asV\u3041\u3063\uff01
p887
(lp888
V\uff01
asV\u304c\u3068\uff01
p889
(lp890
V\u3042
asV\u4ef2\u826f\u304f
p891
(lp892
V\u306a
asV\u3068\uff01\u3042
p893
(lp894
V\u308a
asV\u3001\u306a\u3093
p895
(lp896
V\u3060
aV\u3060
aV\u304b
aV\u304b
aV\u3067
asV\u2026\u304a\u3084
p897
(lp898
V\u3059
aV\u3059
asV\u3061\u3047\uff5e
p899
(lp900
V\u2026
aV\u2026
asV\uff01\u307f\u3083
p901
(lp902
V\u30fc
aV\u30fc
aV\u30fc
asV\uff01\u7740\u66ff
p903
(lp904
V\u3048
aV\u3048
asV\u3044\u3001\u3061
p905
(lp906
V\u3087
aV\u3087
asV\u3057\u307f\u3060
p907
(lp908
V\u306d
asV\u305f\u306e\u30fc
p909
(lp910
V\uff1f
asV\u307e\u3057\u3066
p911
(lp912
V\u304a
aV\u304a
asV\u3044\u3001\u306b
p913
(lp914
V\u3043
aV\u3043
aV\u3043
aV\u3043
aV\u3043
aV\u3043
aV\u3043
aV\u3043
aV\u3043
aV\u3043
aV\u3043
aV\u3043
aV\u3043
aV\u3043
aV\u3043
aV\u3043
aV\u3043
aV\u3043
asV\uff1f\u305d\u3093
p915
(lp916
V\u306a
aV\u306a
aV\u304f
asV\u3084\u3063\u305f
p917
(lp918
V\u30fc
aV\uff5e
aV\uff01
aV\uff5e
asV\u306a\u5b50\u4f9b
p919
(lp920
V\u3063
asV\u304b\u7528\u4e8b
p921
(lp922
V\uff1f
aV\uff1f
asV\u3042\u306b\uff1f
p923
(lp924
g790
asV\u306f\u3044\u3044
p925
(lp926
V\u59b9
aV\u304b
aV\u3088
asV\u308a\u524d\u3067
p927
(lp928
V\u3057
asV\u30f3\u30c8\u306f
p929
(lp930
V\u30c0
asV\u3044\u3001\u3044
p931
(lp932
V\u3063
asV\u308a\u524d\u3058
p933
(lp934
V\u3083
asV\u4e8b\u306a\u3044
p935
(lp936
V\u3082
asV\u30f3\u30c8\u3057
p937
(lp938
V\u3066
aV\u3066
asV\u3084\u3063\u3066
p939
(lp940
V\u3082
asV\u30b1\u30d9\u306b
p941
(lp942
V\u306a
aV\u306a
asV\u3042\u3045\u2026
p943
(lp944
V\u2026
aV\u2026
aV\u2026
asV\u306f\u3044\u306f
p945
(lp946
V\u301c
aV\uff5e
asV\u5bd2\u3044\u306d
p947
(lp948
V\uff5e
asV\u304c\u3068\uff5e
p949
(lp950
g790
asV\u3084\u3063\u3071
p951
(lp952
V\u308a
aV\u308a
aV\u308a
asV\u5b9a\u306a\u306e
p953
(lp954
V\uff1f
asV\u3064\u304b\u75f4
p955
(lp956
V\u6f22
aV\u6f22
aV\u6f22
asV\u308c\u306f\u2026
p957
(lp958
V\u2026
aV\u2026
asV\u306e\u306b\u2026
p959
(lp960
V\u2026
asV\u3082\u3063\u3066
p961
(lp962
V\uff01
aV\uff01
asV\u3093\u305f\u307e
p963
(lp964
V\u306b
aV\u306b
asV\u2026\u3042\uff01
p965
(lp966
g790
asV\u3093\u3082\u301c
p967
(lp968
V\u3001
asV\u3055\u30fc\u3093
p969
(lp970
V\uff01
asV\u3001\u53c2\u3063
p971
(lp972
V\u305f
aV\u305f
asV\uff5e\uff5e\u3093
p973
(lp974
V\u2026
asV\u304b\u308b\u3051
p975
(lp976
V\u3069
aV\u3069
asV\u3093\u3002\u3082
p977
(lp978
V\u3061
asV\u3082\u3063\u305f
p979
(lp980
V\u3044
asV\u6c5f\u3061\u3083
p981
(lp982
V\u3093
aV\u3093
aV\u3093
aV\u3093
aV\u3093
aV\u3093
aV\u3093
aV\u3093
aV\u3093
asV\u3093\u3002\u3088
p983
(lp984
V\u3046
aV\u3046
aV\u3046
asV\u3093\u3002\u308f
p985
(lp986
V\u304b
asV\u5931\u6557\u5931
p987
(lp988
V\u6557
aV\u6557
aV\u6557
asV\u6765\u308b\u306e
p989
(lp990
V\u3060
aV\u3060
asV\uff1f\u7d17\u6c5f
p991
(lp992
V\u3061
asV\u3093\u3061\u3087
p993
(lp994
V\u3063
asg127
(lp995
g790
ag790
ag790
asV\u3082\u3075\u304b
p996
(lp997
V\u3075
asV\u3044\u304a\u5144
p998
(lp999
V\u3061
asV\u3066\u3042\u308b
p1000
(lp1001
V\u306e
asV\u3044\u3066\u2026
p1002
(lp1003
V\u2026
asV\u3044\u99ac\u9e7f
p1004
(lp1005
V\u306b
asV\u2026\u5931\u6557
p1006
(lp1007
V\uff1f
aV\uff1f
asV\u30e0\u306e\u4e8b
p1008
(lp1009
V\u8003
asV\u3063\u305f\u3044
p1010
(lp1011
V\u306a
aV\u4f55
aV\u306a
asV\u3063\u305f\u304b
p1012
(lp1013
V\uff01
asV\u3001\u30b2\u30fc
p1014
(lp1015
V\u30e0
asV\u3057\u3043\u30fc
p1016
(lp1017
g790
asV\u3063\u305f\u304f
p1018
(lp1019
V\u7f8e
aV\u3082
aV\u3001
aV\u3082
aV\u2026
asV\u2026\u304a\u5144
p1020
(lp1021
V\u3061
aV\u3061
aV\u3061
aV\u3061
aV\u3061
asV\u30c4\u30ea\uff01
p1022
(lp1023
g790
asV\u3060\u3058\u3083
p1024
(lp1025
V\u306a
asV\u611b\u304f\u306a
p1026
(lp1027
V\u3044
aV\u3044
aV\u3044
asV\u65e9\u304f\u65e9
p1028
(lp1029
V\u304f
aV\u304f
asV\u5f85\u3061\u307e
p1030
(lp1031
V\u305b
aV\u305b
asV\u3046\u2026\u2026
p1032
(lp1033
g790
ag790
ag790
ag790
aV\u3057
ag790
ag790
ag790
ag790
ag790
ag790
ag790
ag790
asV\uff5e\u3002\u305d
p1034
(lp1035
V\u3046
aV\u3046
asV\u2026\u3002\u4f55
p1036
(lp1037
V\u3067
aV\u3067
aV\u3067
asV\uff1f\u5165\u3063
p1038
(lp1039
V\u3066
asV\u30e1\u3060\u3088
p1040
(lp1041
V\u305d
asV\u3063\u305f\u30af
p1042
(lp1043
V\u30de
aV\u30de
asV\u3001\u697d\u3057
p1044
(lp1045
V\u307f
asV\u305f\u3044\uff1f
p1046
(lp1047
g790
asV\u6821\u3067\u4f55
p1048
(lp1049
V\u304b
aV\u304b
asV\u3063\u3066\u5973
p1050
(lp1051
V\u306e
aV\u306e
asV\u3063\u3068\u98df
p1052
(lp1053
V\u3044
aV\u3044
asV\u99c4\u76ee\u99c4
p1054
(lp1055
V\u76ee
asV\u3001\u7d76\u5bfe
p1056
(lp1057
V\u3060
aV\u805e
asV\u3046\u3051\u3069
p1058
(lp1059
g790
asV\u3063\u305f\u3089
p1060
(lp1061
V\u306a
aV\u3061
aV\u306a
aV\u306a
aV\u5225
asV\u3063\u305f\u3088
p1062
(lp1063
V\u304a
aV\uff5e
aV\u304a
asV\u3083\u3093\u2026
p1064
(lp1065
V\u2026
aV\u2026
aV\u2026
aV\u2026
aV\u2026
aV\u2026
aV\u2026
aV\u2026
aV\u2026
aV\u2026
aV\u2026
asV\u3042\u30fc\uff01
p1066
(lp1067
V\u99ac
asV\u3063\u305f\u3093
p1068
(lp1069
V\u3067
aV\u3067
asV\u3055\u3044\u3001
p1070
(lp1071
V\u306b
aV\u306b
aV\u306b
aV\u306b
aV\u306b
aV\u306b
aV\u306b
aV\u306b
aV\u306b
aV\u306b
aV\u306b
aV\u306b
aV\u306b
aV\u306b
aV\u306b
aV\u306b
aV\u306b
aV\u306b
asV\u306f\u301c\u3044
p1072
(lp1073
V\u3001
ag790
ag790
ag790
asV\u3044\u306f\u301c
p1074
(lp1075
V\u3044
asV\u3055\u3044\u300f
p1076
(lp1077
V\u3057
asV\u5165\u3063\u3066
p1078
(lp1079
V\u3044
asV\u5144\u3061\u3083
p1080
(lp1081
V\u3093
aV\u3093
aV\u3093
aV\u3093
aV\u3093
aV\u3093
aV\u3093
aV\u3093
aV\u3093
aV\u3093
aV\u3093
aV\u3093
aV\u3093
aV\u3093
aV\u3093
aV\u3093
aV\u3093
aV\u3093
aV\u3093
aV\u3093
aV\u3093
aV\u3093
aV\u3093
aV\u3093
aV\u3093
aV\u3093
aV\u3093
aV\u3093
aV\u3093
aV\u3093
aV\u3093
aV\u3093
aV\u3093
aV\u3093
aV\u3093
aV\u3093
aV\u3093
aV\u3093
aV\u3093
aV\u3093
aV\u3093
aV\u3093
aV\u3093
aV\u3093
aV\u3093
aV\u3093
aV\u3093
aV\u3093
aV\u3093
aV\u3093
aV\u3093
aV\u3093
aV\u3093
aV\u3093
aV\u3093
aV\u3093
aV\u3093
aV\u3093
aV\u3093
aV\u3093
aV\u3093
aV\u3093
aV\u3093
aV\u3093
aV\u3093
aV\u3093
aV\u3093
aV\u3093
aV\u3093
aV\u3093
aV\u3093
asV\u3093\u3002\u307e
p1082
(lp1083
V\u3055
aV\u3055
asV\u3057\u305f\uff1f
p1084
(lp1085
g790
ag790
ag790
asV\u5186\u9810\u3051
p1086
(lp1087
V\u308b
asV\uff01\u308f\u30fc
p1088
(lp1089
V\u3044
asV\u3084\u30fc\u3089
p1090
(lp1091
V\u3057
asV\u30ce\u30ea\u304c
p1092
(lp1093
V\u60aa
asV\u3063\u305f\u30fc
p1094
(lp1095
V\uff01
asV\u53cb\u9054\u304c
p1096
(lp1097
V\u904a
aV\u904a
asV\u306a\u306e\u3088
p1098
(lp1099
V\u30fc
aV\u30fc
aV\u30fc
asV\u5c0f\u3055\u304f
p1100
(lp1101
V\u3057
aV\u3057
asV\u3082\u4e8c\u4eba
p1102
(lp1103
V\u3067
asV\u3066\u308b\u5206
p1104
(lp1105
V\u304b
aV\u304b
asV\u3093\u3002\u305d
p1106
(lp1107
V\u3046
aV\u306e
aV\u3046
aV\u3046
asV\u3093\u3002\u3042
p1108
(lp1109
V\u308a
asV\u30c1\u306a\u4e8b
p1110
(lp1111
V\u3068
asV\u304b\u308b\u3088
p1112
(lp1113
g790
ag790
aV\u2026
asV\u3093\u3002\u3044
p1114
(lp1115
V\u3064
aV\u3064
aV\u3064
asV\u30b1\u30d9\u306a
p1116
(lp1117
V\u3093
asV\u3044\u3082\u3093
p1118
(lp1119
V\uff01
aV\uff01
asV\u304b\u308b\u3082
p1120
(lp1121
V\u3093
aV\u3093
asV0\u4e07\u5186
p1122
(lp1123
V\u9810
asV\uff01\u306a\u3093
p1124
(lp1125
V\u306e
aV\u3067
aV\u3067
aV\u306e
asV\u30c0\u30e1\u2026
p1126
(lp1127
V\u2026
aV\u2026
aV\u2026
aV\u2026
aV\u2026
asV\u308c\u304b\u3089
p1128
(lp1129
V\u3060
asV\u308c\u30fc\uff01
p1130
(lp1131
V\u99ac
asV\u2026\u2026\u5909
p1132
(lp1133
V\u306a
asV\u914d\u3055\u305b
p1134
(lp1135
V\u306a
asV\u3070\u3063\u304b
p1136
(lp1137
V\u308a
aV\u308a
asV\u305d\u8997\u3044
p1138
(lp1139
V\u3061
asV\u3044\u2026\u2026
p1140
(lp1141
g790
asV\u3064\u3082\u4e8c
p1142
(lp1143
V\u4eba
asV\u8272\u304c\u826f
p1144
(lp1145
V\u3044
asV\u3046\uff5e\uff01
p1146
(lp1147
g790
ag790
ag790
asV\u3070\u3063\u3070
p1148
(lp1149
V\u3070
aV\u3070
asV\u3001\u4eca\u5e74
p1150
(lp1151
V\u3082
aV\u3082
asV\u3001\u3069\u3053
p1152
(lp1153
V\u306b
aV\u306b
asV\u30d9\u306a\u3093
p1154
(lp1155
V\u3060
asV\u3059\u307f\u2026
p1156
(lp1157
V\u2026
aV\u2026
asV\u3001\u3069\u3046
p1158
(lp1159
V\u3057
aV\u3057
aV\u3044
aV\u3057
aV\u3057
aV\u3057
aV\u3057
aV\u3057
asV\u2026\u3059\u30fc
p1160
(lp1161
V\u3001
asV\u59b9\u306b\u5fc3
p1162
(lp1163
V\u914d
asV\u306f\u7121\u3044
p1164
(lp1165
V\u3093
aV\u3093
asV\u300f\u3057\u3066
p1166
(lp1167
V\u3088
asV\u9810\u304b\u3063
p1168
(lp1169
V\u3066
asV\u3048\u3044\u3084
p1170
(lp1171
V\u3063
aV\u3063
aV\u3063
asV\u307f\u306b\u3057
p1172
(lp1173
V\u3066
aV\u3066
aV\u3066
asV\u3068\u30af\u30de
p1174
(lp1175
V\u3055
aV\u3055
asV\u305f\u3063\u3060
p1176
(lp1177
V\u3044
aV\u3044
aV\u3044
asV\u308f\u3051\u306a
p1178
(lp1179
V\u3044
asV\u6c17\u3060\u3088
p1180
(lp1181
g790
asV\u3085\uff01\uff01
p1182
(lp1183
V\u3055
asV\u76db\u308a\u30b9
p1184
(lp1185
V\u30a6
asV\u98df\u3044\u3064
p1186
(lp1187
V\u3044
aV\u3044
asV\u306f\u306b\u3043
p1188
(lp1189
V\u306b
asV\u3048\u4e2d\u306a
p1190
(lp1191
V\u306e
aV\u306e
asV\u30a2\u30a2\u2026
p1192
(lp1193
V\u2026
aV\u2026
aV\u2026
asV\u3093\u2026\u2026
p1194
(lp1195
g790
ag790
aV\u3069
ag790
ag790
aV\u3069
ag790
aV\u6b8b
aV\u78ba
aV\u3063
ag790
aV\u3067
ag790
aV\u305d
ag790
ag790
ag790
ag790
aV\u3002
ag790
aV\u3002
ag790
aV\u78ba
aV\u3002
ag790
aV\u3002
ag790
aV\u3069
asV\u3046\uff5e\uff5e
p1196
(lp1197
V\uff5e
asV\u3001\u3069\u3001
p1198
(lp1199
V\u3069
aV\u3069
asV\uff5e\u3093\u2026
p1200
(lp1201
V\u2026
aV\u2026
aV\u2026
asV\u306b\u3042\u308a
p1202
(lp1203
V\u304c
asV\u30fc\u306e\u53cb
p1204
(lp1205
V\u9054
aV\u9054
asV\u5927\u5909\u3060
p1206
(lp1207
V\u3063
asV\u306b\u2026\u2026
p1208
(lp1209
g790
ag790
aV\u5b66
ag790
ag790
aV\u3069
ag790
ag790
aV\u99c4
aV\u99c4
aV\u5b66
ag790
ag790
aV\u3002
asV\u306d\u3048\u306d
p1210
(lp1211
V\u3048
aV\u3048
asV\u304a\u3001\u304a
p1212
(lp1213
V\u5144
aV\u5144
asV\u3001\u3058\u30fc
p1214
(lp1215
V\u3063
asV\u30fc\u3092\u5927
p1216
(lp1217
V\u4e8b
aV\u4e8b
asV\u308a\u3083\u308f
p1218
(lp1219
V\u304b
asV\u3082\u3046\uff5e
p1220
(lp1221
V\u3001
aV\u3057
aV\u3001
asV\u3088\u2026\u2026
p1222
(lp1223
g790
ag790
asV\u671d\u3060\u3088
p1224
(lp1225
V\uff5e
asV\u3066\u51fa\u306a
p1226
(lp1227
V\u3044
asV\u30a8\u30c3\u30c1
p1228
(lp1229
V\u30a8
aV\u30a8
aV\uff01
aV\u306a
asV\u30fc\u30d3\u30b9
p1230
(lp1231
V\u30b5
ag790
aV\u30b5
ag790
asV\u3083\u3093\u8336
p1232
(lp1233
V\u5316
asV\u3082\u3046\uff01
p1234
(lp1235
V\u304a
aV\u3059
ag790
ag790
ag790
ag790
aV\u99ac
aV\u304a
asV\u3060\u3063\u304d
p1236
(lp1237
V\u307e
aV\u307e
asV\u3050\u306b\u305d
p1238
(lp1239
V\u3046
asV\u5f35\u3063\u3066
p1240
(lp1241
V\u306d
asV\u3044\u304b\u3082
p1242
(lp1243
g790
ag790
asV\u3060\u3063\u305f
p1244
(lp1245
V\u3089
aV\u306e
aV\u3089
aV\u3089
aV\u3093
aV\u3089
asV\uff5e\u3002\u671d
p1246
(lp1247
V\u3060
asV\u3067\u30fc\uff01
p1248
(lp1249
V\uff01
asV\u3059\u3054\u3044
p1250
(lp1251
V\u3059
aV\u3001
aV\u3059
aV\u3001
asV\u306b\u3083\uff5e
p1252
(lp1253
V\uff5e
asg416
(lp1254
g790
asV\u3044\u304b\u3089
p1255
(lp1256
V\u51fa
aV\u30c0
aV\u30c0
ag790
aV\u3063
aV\u30c0
ag790
aV\u306d
asV\u3044\uff01\u3082
p1257
(lp1258
V\u3046
asV\u308a\u3083\u30fc
p1259
(lp1260
V\u30fc
asV\u3060\u3063\u3066
p1261
(lp1262
V\u5973
aV\u5973
aV\u3042
asV\u7d04\u675f\u3057
p1263
(lp1264
V\u3066
asV\u308b\u306a\u3093
p1265
(lp1266
V\u3066
aV\u3066
asV\u306f\uff5e\u3044
p1267
(lp1268
g790
ag790
asV\u4e5f\u306b\u30d7
p1269
(lp1270
V\u30ec
aV\u30ec
aV\u30ec
asV\u30fc\u3093\uff01
p1271
(lp1272
g790
asV\u3082\u3093\uff01
p1273
(lp1274
g790
ag790
asV\u306b\u9ed2\u3044
p1275
(lp1276
V\u732b
aV\u732b
asV\u3002\u7f6e\u3044
p1277
(lp1278
V\u3068
asV\u3058\u3083\u3063
p1279
(lp1280
V\u3058
asV\u5909\u306a\u3053
p1281
(lp1282
V\u3068
asV\u3042\u2026\u2026
p1283
(lp1284
g790
ag790
asV\u3058\u3083\u306a
p1285
(lp1286
V\u3044
aV\u3044
aV\u304f
aV\u3044
aV\u3044
aV\u304f
aV\u3044
aV\u3044
aV\u3044
aV\u304f
aV\u3044
aV\u304f
aV\u3044
aV\u3044
aV\u3044
aV\u304f
aV\u304f
aV\u3044
asV\u306b\u301c\uff1f
p1287
(lp1288
g790
asV\u308c\u3061\u3083
p1289
(lp1290
V\u30c0
asV\u3066\u308b\u30fc
p1291
(lp1292
V\u3063
aV\u3063
asV\u304c\u9055\u3046
p1293
(lp1294
V\u3051
asV\u306f\u5973\u306e
p1295
(lp1296
V\u5b50
asV\u30fc\u3079\u30fc
p1297
(lp1298
V\u305d
aV\u305d
asV\u30fc\u3044\u3042
p1299
(lp1300
V\u308a
asV\u3058\u3083\u3042
p1301
(lp1302
V\u3001
aV\u306d
aV\u2026
aV\u3001
aV\u305d
aV\u306d
aV\u3001
aV\u306d
aV\u306d
aV\u2026
aV2
asV\u308b\u3057\u3083
p1303
(lp1304
V\u30fc
aV\u30fc
asV\u3080\u3080\u2026
p1305
(lp1306
V\u2026
aV\u2026
asV\u304c\u826f\u3044
p1307
(lp1308
V\u3088
asV\u306d\uff5e\u3063
p1309
(lp1310
g790
ag790
aV\uff01
asV\u3060\uff01\u7f8e
p1311
(lp1312
V\u4e5f
asV\u3087\u3046\u304c
p1313
(lp1314
V\u306a
aV\u306a
aV\u306a
aV\u306a
aV\u306a
aV\u306a
aV\u306a
aV\u306a
aV\u306a
asV\u306b\u306f\u307e
p1315
(lp1316
V\u3060
asV\u3088\u308a\u4e8c
p1317
(lp1318
V\u4eba
aV\u4eba
asV\u3053\u3044\u4e8b
p1319
(lp1320
V\u3092
aV\u3092
asV\u3083\u5371\u306a
p1321
(lp1322
V\u3044
asV\u305b\u30fc\uff01
p1323
(lp1324
g790
ag790
ag790
asV\u3057\u3066\u306d
p1325
(lp1326
V\u3002
ag790
ag790
aV\u3002
asV\u306b\u306f\u3001
p1327
(lp1328
V\u4f55
asV\u305d\u3063\u304b
p1329
(lp1330
V\u305d
ag790
aV\u2026
aV\u2026
aV\u2026
aV\u306a
aV\u306a
asV\u2026\u306f\u3041
p1331
(lp1332
g790
aV\u306f
aV\u3002
aV\uff5e
asV\u3068\u3067\u3088
p1333
(lp1334
V\u308d
asV\u307e\u3063\u305f
p1335
(lp1336
V\u304f
aV\u2026
aV\u304f
aV\u304f
aV\u2026
aV\u304f
aV\u306e
aV\u2026
aV\u304f
aV\u306e
asV\u9054\u304c\u904a
p1337
(lp1338
V\u3073
aV\u3073
asV\u3002\u4f55\u3067
p1339
(lp1340
V\u3082
aV\u3082
aV\u3082
asV\u306f\u65e9\u304f
p1341
(lp1342
V\u5e30
asV\u306f\u826f\u3044
p1343
(lp1344
V\u4e8b
aV\u4e8b
asV\u3058\u3083\u3001
p1345
(lp1346
V\u3044
aV\u3044
asV\u3057\u3066\u304f
p1347
(lp1348
V\u308b
aV\u308b
asV\u3057\u3066\u304d
p1349
(lp1350
V\u305f
aV\u305f
asV\u307e\u3063\u3061
p1351
(lp1352
V\u3083
aV\u3083
aV\u3083
asV\uff1f\u3067\u3001
p1353
(lp1354
V\u3067
aV\u3067
asV\u30ec\u304a\u5144
p1355
(lp1356
V\u3061
asV\u3057\u3066\u3044
p1357
(lp1358
V\u308b
aV\u308b
asV\u3057\u3066\u305f
p1359
(lp1360
V\u306e
aV\u306e
asV\uff01\u77e5\u3089
p1361
(lp1362
V\u306a
aV\u306a
aV\u306a
aV\u306a
asV\u3047\u2026\u2026
p1363
(lp1364
V\u5931
ag790
ag790
ag790
ag790
aV\u5931
asV\u3066\u308b\u306d
p1365
(lp1366
V\u3063
aV\u3063
aV\u3063
asV\u3066\u308b\u306e
p1367
(lp1368
V\u304a
aV\u304a
aV\uff1f
aV\uff5e
aV\u304a
aV\uff1f
aV\uff1f
aV\uff1f
aV\u304b
aV\u306b
ag790
aV\uff1f
aV\uff01
asV\u3082\u3084\u308d
p1369
(lp1370
V\u3046
asV\u3044\u307e\u301c
p1371
(lp1372
g790
ag790
ag790
ag790
asV\u3066\u308b\u3063
p1373
(lp1374
V\u3066
asV\u3051\u306a\u3044
p1375
(lp1376
V\u3067
asV\u5909\u306a\u30dd
p1377
(lp1378
V\u30fc
asV\u3042\u3002\u305d
p1379
(lp1380
V\u306e
asV\u306a\u3001\u306a
p1381
(lp1382
V\uff5e
aV\u3093
asV\u304b\u308a\u3057
p1383
(lp1384
V\u3066
aV\u3066
asV\u3058\u3083\u30fc
p1385
(lp1386
V\u3093
asV\u3093\u306a\u65e5
p1387
(lp1388
V\u306b
asV\u308b\u3057\u3001
p1389
(lp1390
V\u307f
asV\u3057\u3066\u308b
p1391
(lp1392
V\u304b
aV\u306e
aV\u306e
aV\u30fc
aV\u306e
aV\u306e
aV\u306e
aV\u306e
aV\u306e
aV\u306e
aV\u306e
aV\u30fc
aV\u306e
aV\u306e
aV\u306d
aV\u306d
aV\u306d
aV\u306e
asV\u3057\u3066\u3088
p1393
(lp1394
V\u306d
asV\u3066\u308b\u304b
p1395
(lp1396
V\u3089
asV\u306b\u3001\u5927
p1397
(lp1398
V\u4e08
aV\u4e08
aV\u4e08
asV\u304b\u308a\u3067
p1399
(lp1400
V\u2026
aV\u2026
asV\u3057\u3066\u3082
p1401
(lp1402
V\u307f
aV\u5bd2
aV\u307f
asV\u3044\u3068\u3044
p1403
(lp1404
V\u3066
aV\u3066
asV\u66ff\u3048\u4e2d
p1405
(lp1406
V\u306a
aV\u306a
asV\u30fc\u305d\u308c
p1407
(lp1408
V\u306f
asV\u601d\u3046\u3088
p1409
(lp1410
V\uff1f
asV\u3066\u308b\u3051
p1411
(lp1412
V\u3069
aV\u3069
asV\u3047\uff1f\u2026
p1413
(lp1414
V\u2026
asV\u3044\u3068\u3051
p1415
(lp1416
V\u307e
asV\u30fc\u304a\u8179
p1417
(lp1418
V\u3059
aV\u3059
asV\u306d\u3047\u3001
p1419
(lp1420
V\u3061
asV\u3063\u304b\u2026
p1421
(lp1422
V\u2026
aV\u2026
aV\u2026
asV\uff01\uff01\uff01
p1423
(lp1424
g790
ag790
ag790
ag790
asV\u3042\uff01\u3053
p1425
(lp1426
V\u3089
aV\u3089
aV\u3089
asV\u3042\uff01\u305b
p1427
(lp1428
V\u3063
asV\u3057\u3066\u30fc
p1429
(lp1430
V\uff1f
asV\u9a5a\u304b\u305b
p1431
(lp1432
V\u306a
asV\u3066\u304d\u3066
p1433
(lp1434
V\u305f
aV\u3088
aV\u3088
asV\u3001\u6700\u8fd1
p1435
(lp1436
V\u9854
aV\u5b66
asV\u3066\u304d\u305f
p1437
(lp1438
V\u3093
aV\u3093
asV\u3057\u3088\u3046
p1439
(lp1440
V\u2026
aV\u2026
aV\u2026
asV\u5408\u308f\u306a
p1441
(lp1442
V\u3044
asV\u30fc\u306f\u307f
p1443
(lp1444
V\u3083
asV\u3002\u4efb\u305b
p1445
(lp1446
V\u3066
aV\u3066
asV\u3058\u3083\u3093
p1447
(lp1448
g790
ag790
aV\uff01
asV\u306e\u3051\u3061
p1449
(lp1450
V\u3093
asV\u3001\u771f\u9762
p1451
(lp1452
V\u76ee
aV\u76ee
asV\u3066\u8a00\u3063
p1453
(lp1454
V\u3066
asV\u3042\uff01\u306b
p1455
(lp1456
V\u3043
aV\u3043
aV\u3043
asV\u306b\u30fc\u304a
p1457
(lp1458
V\u8179
aV\u8179
asV\u308f\u2026\u2026
p1459
(lp1460
V\u304a
aV\u304a
asV\u3044\u3044\u3093
p1461
(lp1462
V\u3060
aV\u3060
aV\u3060
aV\u3058
aV\u3058
asV\u3093\u3060\u3001
p1463
(lp1464
V\u304a
aV\u304a
asV\u306e\u53cd\u5fdc
p1465
(lp1466
V\u3002
aV\u3002
asV\u3046\u52dd\u3061
p1467
(lp1468
V\u76ee
asV\u3093\u3001\u4efb
p1469
(lp1470
V\u305b
aV\u305b
asV\u3044\u3044\u3088
p1471
(lp1472
V\u30fc
aV\uff01
ag790
ag790
aV\u306d
aV\u306d
aV\uff01
aV\u306d
aV\u3002
aV\u30fc
aV\u306d
asV\u3046\uff01\u99ac
p1473
(lp1474
V\u9e7f
asV\u2026\u2026\u5b66
p1475
(lp1476
V\u6821
aV\u6821
asV\u3046\u30fc\u3093
p1477
(lp1478
V\u3001
aV\u2026
aV\u3001
aV\u2026
asV\u3045\u2026\u2026
p1479
(lp1480
V\u304a
ag790
aV\u304a
ag790
ag790
aV\u304a
asV\u3044\u3044\u3084
p1481
(lp1482
g790
ag790
ag790
asV\u3093\u3001\u4eca
p1483
(lp1484
V\u65e5
asV\u308b\u307b\u3069
p1485
(lp1486
V\uff5e
aV\u3001
asV\u3088\u308d\u3057
p1487
(lp1488
V\u304f
aV\u304f
aV\u304f
aV\u304f
aV\u304f
aV\u304f
aV\u304f
asV\u3055\u2026\u2026
p1489
(lp1490
g790
ag790
ag790
asV\u308b\u306e\uff5e
p1491
(lp1492
g790
asV\u306f\u306a\u3044
p1493
(lp1494
V\u3068
aV\u306e
asV\u5bd2\u3044\u2026
p1495
(lp1496
V\u2026
asV\u304a\u3081\u3067
p1497
(lp1498
V\u3068
aV\u3068
asV\u8089\u307e\u3093
p1499
(lp1500
V\u304b
ag790
asV\u3066\u3082\u5bd2
p1501
(lp1502
V\u3044
asV\u9e7f\u306b\u3043
p1503
(lp1504
V\u306b
aV\u306b
aV\u306b
aV\u306b
aV\u306b
aV\u306b
aV\u306b
asV\u3042\u306d\uff01
p1505
(lp1506
g790
asV\u8a00\u3046\u6c17
p1507
(lp1508
V\u306b
aV\u306b
aV\u306b
asV\u308a\u3057\u305f
p1509
(lp1510
V\u301c
aV\u301c
aV\u301c
asV\u96e2\u305b\u30fc
p1511
(lp1512
V\uff01
aV\uff01
aV\uff01
asV\u9e7f\u306a\u304a
p1513
(lp1514
V\u5144
aV\u5144
aV\u5144
asV\u304b\uff01\uff01
p1515
(lp1516
g790
asV\u3093\u3060\u3058
p1517
(lp1518
V\u3083
asV\u2026\u3048\u30fc
p1519
(lp1520
V\u3063
asV\u3080\uff01\u8997
p1521
(lp1522
V\u304d
aV\u304d
aV\u304d
aV\u304d
asV\u3069\u3057\u305f
p1523
(lp1524
V\u306e
aV\u306e
aV\u306e
asV\u3075\uff5e\uff5e
p1525
(lp1526
V\uff5e
asV\u3093\u3060\u3068
p1527
(lp1528
V\u30fc
asV\u3067\u3057\u3087
p1529
(lp1530
g790
aV\u30fc
aV\uff5e
aV\uff5e
aV\uff01
aV\uff01
aV\u30fc
aV\uff1f
asV\u3093\u3060\u306d
p1531
(lp1532
V\uff5e
aV\uff5e
asV\u4f55\u3055\u305b
p1533
(lp1534
V\u305f
aV\u305f
asV\u3093\u3060\u3063
p1535
(lp1536
V\uff01
aV\uff01
asV\u308b\u306e\uff01
p1537
(lp1538
V\u3053
asV\u308b\u306e\uff1f
p1539
(lp1540
g790
ag790
ag790
aV\u7f8e
ag790
ag790
asV\u3084\u308c\u3070
p1541
(lp1542
V\u3044
asV\u5f53\u306b\uff01
p1543
(lp1544
V\uff1f
asV\u3066\u3051\u301c
p1545
(lp1546
V\uff01
asV\u306e\u80f8\u3001
p1547
(lp1548
V\u3058
asV\u53cd\u5fdc\u3002
p1549
(lp1550
V\u3064
aV\u3064
asV\u308a\u3057\u3066
p1551
(lp1552
V\u3044
aV\u3044
asV\u3093\u3060\u3088
p1553
(lp1554
V\u3001
aV\u301c
aV\u306d
aV\u3001
ag790
aV\u301c
aV\u2026
aV\u3001
asV\u3046\u306b\u3083
p1555
(lp1556
V\u30fc
aV\u30fc
asV\u308c\u3066\u884c
p1557
(lp1558
V\u304f
aV\u304f
asV\u3093\u3060\u3082
p1559
(lp1560
V\u30fc
aV\u30fc
aV\u30fc
asV\u5c4b\u306b\u9023
p1561
(lp1562
V\u308c
aV\u308c
asV\u306f\u5bc4\u308a
p1563
(lp1564
V\u9053
aV\u9053
asV\u3066\u3051\u30fc
p1565
(lp1566
V\u30fc
asV\u306a\u3041\u2026
p1567
(lp1568
V\u2026
aV\u2026
aV\u2026
aV\u2026
aV\u2026
aV\u2026
aV\u2026
asV\u3068\u3001\u5973
p1569
(lp1570
V\u306e
aV\u306e
asV\u304b\u3063\u305f
p1571
(lp1572
V\uff1f
aV\uff1f
ag790
asV\u3002\u2026\u2026
p1573
(lp1574
V\u3048
asV\u3068\u306a\u306e
p1575
(lp1576
V\u304a
asV\u3044\uff01\uff01
p1577
(lp1578
V\u3070
aV\u3070
asV\u3045\u3002\u3042
p1579
(lp1580
V\u3001
asV\u304f\u3089\u3048
p1581
(lp1582
V\u30fc
asV\u307b\u3089\uff01
p1583
(lp1584
V\u3082
asV\u5206\u304b\u3063
p1585
(lp1586
V\u3066
aV\u3066
aV\u3066
aV\u3066
asV\u2026\u3048\u3001
p1587
(lp1588
V\u3060
asV\u7121\u7406\uff01
p1589
(lp1590
g790
ag790
ag790
asV\u3089\u3061\u3083
p1591
(lp1592
V\u3093
asV\u306b\u3001\u5e30
p1593
(lp1594
V\u3063
asV\u3044\u3044\u3058
p1595
(lp1596
V\u3083
asV\u308b\u306d\u3063
p1597
(lp1598
V\u3002
aV\u3002
aV\u3002
asV\u3044\u3044\u3053
p1599
(lp1600
V\u3068
aV\u3068
asV\u3044\u3044\u3057
p1601
(lp1602
V\u3055
asV\u3044\u3044\u304b
p1603
(lp1604
V\u3089
aV\u3089
asV\u3093\u3084\u3063
p1605
(lp1606
V\u3055
asV\u3059\u308b\uff1f
p1607
(lp1608
g790
ag790
asV\u306a\u308b\uff01
p1609
(lp1610
g790
asV\u3075\u3075\u3063
p1611
(lp1612
V\u3001
aV\u3001
aV\u3001
aV\u3001
asV\u3045\u3001\u53c2
p1613
(lp1614
V\u3063
aV\u3063
asV\u6bcd\u3061\u3083
p1615
(lp1616
V\u3093
aV\u3093
asV\u30bb\u2026\u30bb
p1617
(lp1618
V\u30f3
asV\u6642\u9593\u304c
p1619
(lp1620
V\u3082
asV\u3044\u3044\u306a
p1621
(lp1622
V\u3041
aV\u30fc
aV\u30fc
aV\u3041
asV\u307b\u3089\uff5e
p1623
(lp1624
g790
ag790
asV\u30ea\u304c\u60aa
p1625
(lp1626
V\u3044
asV\u3044\u3044\u3067
p1627
(lp1628
V\u3057
aV\u3057
asV\u308f\u308f\u308f
p1629
(lp1630
V\u3063
aV\u2026
aV\u2026
asV\u5929\u6c17\u3082
p1631
(lp1632
V\u3044
asV\u3093\u3068\u8a71
p1633
(lp1634
V\u805e
asV\u304b\u3044\u3064
p1635
(lp1636
V\u3082
asV\u306b\uff01\u308f
p1637
(lp1638
V\u30fc
asV\uff5e\uff5e\uff5e
p1639
(lp1640
V\u3093
aV\u3059
ag790
aV\u3063
aV\u3059
asV\u3092\u2026\u2026
p1641
(lp1642
g790
ag790
ag790
asV\u5927\u597d\u304d
p1643
(lp1644
V\u3060
aV\u3060
asV\u3042\u3001\u7f8e
p1645
(lp1646
V\u4e5f
aV\u4e5f
asV\u306a\u306e\u30fc
p1647
(lp1648
V\uff1f
asV\u307e\u3060\u3053
p1649
(lp1650
V\u308c
asV\u30d1\u30a4\u3001
p1651
(lp1652
V\u30e9
asV\uff1f\u4eca\u65e5
p1653
(lp1654
V\u306f
asV\u304b\u3044\u3044
p1655
(lp1656
V\u4e8b
aV\u3053
aV\u3053
asV\u6765\u306a\u304b
p1657
(lp1658
V\u3063
aV\u3063
asV\u306e\uff1f\u7f8e
p1659
(lp1660
V\u4e5f
aV\u4e5f
aV\u4e5f
asV\u6765\u306a\u3044
p1661
(lp1662
V\u3093
aV\u3093
asV\u3068\u3044\u3044
p1663
(lp1664
V\u611f
aV\uff1f
aV\u611f
aV\u611f
asV\u308c\u3070\u3044
p1665
(lp1666
V\u3044
asV\u305f\u307e\u306b
p1667
(lp1668
V\u306f
aV\u306f
asV\u3082\u2026\u2026
p1669
(lp1670
V\u305d
aV\u305d
ag790
asV\u5e73\u6c17\u3060
p1671
(lp1672
V\u3088
asV\u9054\u7d39\u4ecb
p1673
(lp1674
V\u3057
asV\u306e\u304a\u53cb
p1675
(lp1676
V\u9054
asV\u3001\u3042\u308a
p1677
(lp1678
V\u304c
asV\u56f2\u6c17\u304c
p1679
(lp1680
V\u9055
asV\u304f\u3089\u640d
p1681
(lp1682
V\u3057
aV\u3057
asV\u6642\u3005\u51b4
p1683
(lp1684
V\u3048
asV\u3068\u306a\u304f
p1685
(lp1686
V\u53ef
aV\u53ef
aV\u53ef
asV\u308b\u3088\u2026
p1687
(lp1688
V\u2026
asV\u306f\u9810\u304b
p1689
(lp1690
V\u3063
asV\u3078\u3078\u2026
p1691
(lp1692
V\u2026
asV\u304f\u3057\u3085
p1693
(lp1694
V\uff01
asV\u8272\u304c\u60aa
p1695
(lp1696
V\u3044
asV\u306a\u306e\uff1f
p1697
(lp1698
g790
asV\u4e8b\u8003\u3048
p1699
(lp1700
V\u3066
asV\u524d\u3058\u3083
p1701
(lp1702
V\u3093
asV\u98ef\u3001\u4f55
p1703
(lp1704
V\u304c
asV\u4e8b\u3068\u304b
p1705
(lp1706
V\u3057
asV\u305f\u307e\u305f
p1707
(lp1708
V\uff5e
aV\u301c
aV\uff5e
asV\u3082\u3061\u308d
p1709
(lp1710
V\u3093
asV\u3053\u305d\u3053
p1711
(lp1712
V\u305d
asV\u305d\u3093\u304f
p1713
(lp1714
V\u3089
asV\u3080\u3001\u3080
p1715
(lp1716
V\u3080
aV\u3080
asV\u304f\u3057\u3066
p1717
(lp1718
V\u306d
aV\u306d
aV\u306d
aV\u306d
asV\u3066\u3051\u51fa
p1719
(lp1720
V\u3066
asV\u3044\u3088\uff5e
p1721
(lp1722
V\uff01
aV\uff01
aV\uff01
asV\u4e8b\u3067\u3082
p1723
(lp1724
V\u3042
asV\u3057\u3087\uff5e
p1725
(lp1726
g790
ag790
ag790
asV\u3057\u304f\uff01
p1727
(lp1728
g790
asV\u3046\u308b\u3055
p1729
(lp1730
V\u3044
aV\u3044
aV\u3044
asV\u3046\u308b\u3057
p1731
(lp1732
V\u3083
aV\u3083
asV\u305d\u3093\u306a
p1733
(lp1734
V\u3053
aV\u4e8b
aV\u3093
aV\u4e8b
aV\u8a00
aV\u4e8b
aV\u3053
aV\u3053
aV\u305b
aV\u6016
aV\u306e
aV\u3053
aV\u3041
aV\u8a00
aV\u3093
aV\u3093
aV\u3053
aV\u306e
aV\u305b
aV\u3053
asV\u306b\u306a\u3063
p1735
(lp1736
V\u305f
aV\u305f
aV\u305f
aV\u3066
aV\u3066
asV\u304a\u53cb\u9054
p1737
(lp1738
V\u7d39
asV\u7f8e\u4e5f\u3001
p1739
(lp1740
V\u7d76
asV\u306f\u3088\u30fc
p1741
(lp1742
g790
ag790
ag790
ag790
ag790
ag790
ag790
ag790
ag790
ag790
ag790
ag790
ag790
ag790
ag790
ag790
ag790
ag790
ag790
ag790
ag790
ag790
ag790
ag790
ag790
ag790
ag790
ag790
ag790
ag790
ag790
ag790
ag790
ag790
ag790
ag790
ag790
ag790
ag790
ag790
ag790
ag790
ag790
ag790
ag790
ag790
ag790
ag790
ag790
ag790
ag790
ag790
ag790
ag790
ag790
asV\u307e\u3060\u30fc
p1743
(lp1744
V\uff1f
asg215
(lp1745
g790
ag790
asV\u65e5\u306f\u5bb6
p1746
(lp1747
V\u306b
aV\u306b
asV\u3001\u3042\u3076
p1748
(lp1749
V\u306a
asV\u9e7f\u5144\u3061
p1750
(lp1751
V\u3083
asV\u304b\u306a\uff1f
p1752
(lp1753
g790
asV\uff01\u3057\u3001
p1754
(lp1755
V\u3057
aV\u3057
aV\u3057
asV\u3084\u3059\u307f
p1756
(lp1757
V\u301c
aV\u301c
aV\u301c
aV\u301c
aV\u306a
aV\u301c
aV\u301c
aV\u306a
aV\u301c
aV\u306a
aV\u306a
aV\u301c
aV\u306a
aV\u306a
aV\u306a
aV\u306a
aV\u306a
aV\u306a
aV\u301c
aV\u2026
aV\u301c
aV\u301c
aV\u306a
aV\u306a
aV\u301c
aV\u306a
aV\u306a
aV\u306a
aV\u306a
aV\u301c
aV\u306a
aV\u301c
aV\u301c
aV\u301c
aV\u301c
aV\u301c
aV\u301c
aV\u301c
aV\u306a
aV\u301c
aV\u2026
aV\u301c
asV\u3057\u3087\uff01
p1758
(lp1759
V\u306a
aV\u5909
asV\uff5e\uff01\u9854
p1760
(lp1761
V\u304c
aV\u304c
asV\u65e5\u306f\u5bc4
p1762
(lp1763
V\u308a
aV\u308a
asV\u3044\u3088\uff01
p1764
(lp1765
g790
aV\u81ea
aV\u81ea
asV\u3044\u3088\uff1f
p1766
(lp1767
g790
ag790
ag790
ag790
ag790
asV\u5909\u8cea\u8005
p1768
(lp1769
V\u304b
asV\u3057\u3087\uff1f
p1770
(lp1771
g790
asV\u3082\u5927\u597d
p1772
(lp1773
V\u304d
aV\u304d
asV\u3064\u3082\u3068
p1774
(lp1775
V\u96f0
asV\u306b\uff01\u3067
p1776
(lp1777
V\u308c
asV\u304c\u30b9\u30b1
p1778
(lp1779
V\u30d9
aV\u30d9
asV\u2026\u30bb\u30f3
p1780
(lp1781
V\u30d1
asV\u3057\u3061\u3083
p1782
(lp1783
V\u3063
aV\u3063
aV\u3063
asV\uff5e\u3001\u697d
p1784
(lp1785
V\u3057
asV\u307b\u3089\u3001
p1786
(lp1787
V\u9060
asV\u3082\u30a6\u30e1
p1788
(lp1789
V\u3061
asV\u30d0\u30fc\u30a4
p1790
(lp1791
g790
asV\u3084\u308d\u3046
p1792
(lp1793
V\u3084
ag790
aV\u3084
ag790
aV\u304b
asV\u306b\u3044\u308b
p1794
(lp1795
V\uff1f
aV\uff1f
asV\u3051\u3069\u3001
p1796
(lp1797
V\u304a
asV\u3002\u4eca\u65e5
p1798
(lp1799
V\u306e
aV\u306f
aV\u306f
asV\u59b9\u3060\u306d
p1800
(lp1801
g790
asV\u3046\u3057\u305f
p1802
(lp1803
V\u306e
aV\u306e
aV\u306e
aV\u306e
aV\u306e
aV\u306e
aV\u306e
aV\u306e
aV\u306e
aV\u306e
aV\u306e
aV\u306e
aV\u306e
asV\u3002\u305d\u3046
p1804
(lp1805
V\u3044
aV\u3044
aV\u3058
aV\u3044
aV\u3058
asV\u30fc\u3001\u5909
p1806
(lp1807
V\u306a
asV\u3041\u3002\u4ed6
p1808
(lp1809
V\u306b
asV\u3082\u3063\u3068
p1810
(lp1811
V\u307f
aV\u307f
aV\u98df
aV\u98df
asV\u3083\u3063\u3066
p1812
(lp1813
V\uff01
aV\u3055
aV\u2026
aV\u3001
asV\u30c0\u30c3\u30d5
p1814
(lp1815
V\u30eb
asV\u3046\u306d\uff5e
p1816
(lp1817
g790
ag790
asV\u3083\u3063\u305f
p1818
(lp1819
V\u2026
asV\u3084\u308d\u3063
p1820
(lp1821
g790
ag790
asV\u3083\u3063\u3058
p1822
(lp1823
V\u3083
asV\u3001\u6ce3\u3044
p1824
(lp1825
V\u3066
asV\u65e5\u306e\u6669
p1826
(lp1827
V\u3054
asV\u3046\u3057\u3066
p1828
(lp1829
V\u30fc
asV\u3093\u3063\u3066
p1830
(lp1831
V\u3070
aV\u3001
aV\u3001
asV\u3068\u306a\u3044
p1832
(lp1833
V\u3088
aV\u3063
asV\u3082\u8131\u3054
p1834
(lp1835
V\u3046
aV\u3046
asV\u306a\u3044\uff5e
p1836
(lp1837
V\u3002
asV\u3044\uff5e\u3002
p1838
(lp1839
V\u30ce
asV\u4e08\u592b\u3060
p1840
(lp1841
V\u3088
aV\u3088
aV\u3088
aV\u3088
aV\u3088
asg82
(lp1842
g790
ag790
aV\uff01
asV\u3002\u305d\u306e
p1843
(lp1844
V\u8a71
aV\u307e
asV\u4e08\u592b\u3067
p1845
(lp1846
V\u3059
asV\u3066\u3088\u306d
p1847
(lp1848
g790
asV\u3063\u3068\uff01
p1849
(lp1850
g790
ag790
asV\u6b32\u3057\u3044
p1851
(lp1852
V\uff01
aV\uff01
asV\u305f\u306e\uff1f
p1853
(lp1854
g790
ag790
ag790
ag790
ag790
ag790
ag790
ag790
ag790
ag790
ag790
aV\u7f8e
aV\u7f8e
ag790
ag790
ag790
ag790
ag790
ag790
ag790
ag790
ag790
asV\u2026\u2026\u5931
p1855
(lp1856
V\u6557
aV\u6557
asV\uff01\u6d41\u3055
p1857
(lp1858
V\u308c
asV\u3066\u3082\u99c4
p1859
(lp1860
V\u76ee
asV\u2026\u2026\u5927
p1861
(lp1862
V\u4e08
asV\u306a\u30fc\uff1f
p1863
(lp1864
g790
ag790
asV\u3067\u3044\u308b
p1865
(lp1866
V\u306e
aV\u306e
aV\u3082
asV\uff1f\u3042\u3001
p1867
(lp1868
V\u304a
aV\u304a
aV\u3046
aV\u3046
aV\u3046
aV\u304a
asV\u3051\u3069\u306d
p1869
(lp1870
V\uff01
aV\uff01
asV\u307f\u3093\u306a
p1871
(lp1872
V\u3082
asV\u3001\u30c1\u30e3
p1873
(lp1874
V\u30fc
asV\u306a\u3044\uff01
p1875
(lp1876
V\uff01
ag790
ag790
ag790
aV\u3059
aV\u65e9
aV\uff01
asV\u65e5\u3082\u3075
p1877
(lp1878
V\u304b
asV\u306a\u3044\uff1f
p1879
(lp1880
g790
ag790
asV\u8179\u7a7a\u3044
p1881
(lp1882
V\u3066
asV\u3084\u304b\u3063
p1883
(lp1884
V\u3066
asV\u8a00\u3044\u65b9
p1885
(lp1886
V\u306f
aV\u306f
asV\u3044\u308b\u3082
p1887
(lp1888
V\u3093
asV\u3005\u51b4\u3048
p1889
(lp1890
V\u3066
asV\u65e5\u3082\u3084
p1891
(lp1892
V\u308d
asV\u308f\u308f\u2026
p1893
(lp1894
V\u2026
aV\u2026
asV200
p1895
(lp1896
V0
asV\u3093\u306a\u6016
p1897
(lp1898
V\u3044
asV\u3060\u3088\u306b
p1899
(lp1900
V\u3043
asV\u3001\u4ef2\u3044
p1901
(lp1902
V\u3044
aV\u3044
asV\u3060\u3088\u306d
p1903
(lp1904
V\u3047
aV\u2026
aV\u2026
aV\u3047
aV\u2026
aV\u2026
aV\uff5e
ag790
ag790
aV\uff5e
aV\u3047
asV\u3001\u304a\u8179
p1905
(lp1906
V\u7a7a
asV\u3060\u3088\u305d
p1907
(lp1908
V\u3093
asV\u3067\u3082\u3001
p1909
(lp1910
V\u3044
asV\u30fc\u30df\u30eb
p1911
(lp1912
V\u30af
asV\u3083\u3093\u3092
p1913
(lp1914
V\u3069
aV\u3069
aV\u3069
asV\u3002\u305d\u3093
p1915
(lp1916
V\u306a
asV\u3002\u4ed6\u306b
p1917
(lp1918
V\u306f
asV\u3046\u3057\u3088
p1919
(lp1920
V\u3046
aV\u3046
aV\u3046
asV\u3063\u3068\u5f85
p1921
(lp1922
V\u3063
asV\u3063\u3059\u304c
p1923
(lp1924
V\u304a
asV\u3067\u3082\u306a
p1925
(lp1926
V\u3041
aV\u3044
aV\u3044
aV\u3044
asV\u3066\u3088\u30fc
p1927
(lp1928
g790
ag790
asV\u5b9a\u306f\u6c7a
p1929
(lp1930
V\u307e
aV\u307e
asV\u3051\u301c\uff01
p1931
(lp1932
g790
asV\u3060\u306d\uff5e
p1933
(lp1934
g790
ag790
ag790
ag790
asV\u3067\u3082\u3042
p1935
(lp1936
V\u3063
asV\u3060\u3088\u301c
p1937
(lp1938
g790
ag790
asV\u306b\u3044\u3064
p1939
(lp1940
V\u3082
asV\uff01\u30e0\u30c3
p1941
(lp1942
V\u30c4
asV\u59b9\u3060\u3088
p1943
(lp1944
g790
asV\u3060\u3057\u4eca
p1945
(lp1946
V\u65e5
asV\u3057\u3063\uff01
p1947
(lp1948
g790
ag790
asV\u3068\u3046\uff01
p1949
(lp1950
g790
aV\u306b
aV\u306b
aV\u306b
asV\u3060\u3088\u3002
p1951
(lp1952
V\u5927
asV\u3060\u3088\u3001
p1953
(lp1954
V\u306b
aV\u306b
aV\u306b
asV\u306d\u306b\u3043
p1955
(lp1956
V\u306b
asV\u3001\u8ab0\uff1f
p1957
(lp1958
g790
ag790
ag790
asV\u306f\u3041\u306f
p1959
(lp1960
V\u3041
asV\u4e5f\u306b\u7528
p1961
(lp1962
V\u4e8b
aV\u4e8b
aV\u4e8b
asV\u3084\u304f\u8a00
p1963
(lp1964
V\u3046
aV\u3046
aV\u3046
asV\u3046\u3088\uff01
p1965
(lp1966
V\u3093
aV\u3093
asV\u4ed6\u306e\u304a
p1967
(lp1968
V\u53cb
asV\u3088\u3002\u6642
p1969
(lp1970
V\u9593
asV\u5931\u6557\uff1f
p1971
(lp1972
g790
ag790
asV\uff5e\u2026\u2026
p1973
(lp1974
g790
aV\u3044
ag790
aV\u305d
aV\u3042
aV\u3042
aV\u9055
ag790
aV\u3063
aV\u9055
ag790
aV\u3044
asV\u3046\u3088\uff1f
p1975
(lp1976
g790
ag790
ag790
ag790
asV\u3083\u30fc\u3092
p1977
(lp1978
V\u5927
aV\u5927
asV\u3001\u305d\u3046
p1979
(lp1980
V\u3044
aV\u306a
aV\u306a
aV\u306a
aV\u306a
aV\u306a
aV\uff1f
aV\u3044
aV\u3060
aV\u3044
aV\u304b
aV\u306a
aV\u306a
aV\u3068
aV\u3060
aV\uff1f
aV\u306a
aV\u306a
aV\u306a
asV\u306b\u3063\uff01
p1981
(lp1982
V\uff01
asV\u30ec\u30c7\u30ec
p1983
(lp1984
V\u304a
asV\u65e5\u306b\u2026
p1985
(lp1986
V\u2026
asV\u65e5\u306f\u5929
p1987
(lp1988
V\u6c17
asV\u8ca0\u3051\u3060
p1989
(lp1990
V\u306d
asV\u3084\u3057\u3044
p1991
(lp1992
g790
asV\u3001\u305d\u306e
p1993
(lp1994
V\u8a71
asV\u3001\u305d\u3063
p1995
(lp1996
V\u304b
asV\u306e\u4e88\u5b9a
p1997
(lp1998
V\u306f
aV\u306f
asV\u301c\u3001\u307f
p1999
(lp2000
V\u3083
asV\u3059\u304e\u308b
p2001
(lp2002
V\u3088
asV\u51fa\u3066\u3051
p2003
(lp2004
V\u51fa
aV\u301c
aV\u30fc
asV\u3068\u30fc\uff01
p2005
(lp2006
V\u3082
ag790
ag790
ag790
ag790
asV\u3048\u3048\u30fc
p2007
(lp2008
V\u3001
aV\uff01
asV\u6b62\u3081\u3066
p2009
(lp2010
V\u304a
asV\u5931\u6557\uff5e
p2011
(lp2012
V\u266a
asV\u3042\u305d\u3046
p2013
(lp2014
V\u3044
asV\u3089\u3044\u3044
p2015
(lp2016
V\u3084
aV\u3084
aV\u3084
asV\u305f\uff01\u304a
p2017
(lp2018
V\u5144
asV\u2026\u3044\u3044
p2019
(lp2020
V\u306a
aV\u306a
asV\u305b\u305f\u3044
p2021
(lp2022
V\u306e
aV\u306e
asV\u3046\u3046\uff5e
p2023
(lp2024
V\uff01
aV\uff01
aV\uff01
asV\u306f\u3041\u3002
p2025
(lp2026
V\u4ed6
asV\u3046\u77e5\u3089
p2027
(lp2028
V\u306a
aV\u306a
aV\u306a
asV\uff1f\u3061\u3087
p2029
(lp2030
V\u3001
asV\u5e30\u308b\u3063
p2031
(lp2032
V\u3066
asV\u53c2\u3063\u305f
p2033
(lp2034
V\u3088
aV\u304b
aV\u3088
asV\u3068\u300e\u3054
p2035
(lp2036
V\u3081
asV\u301c\u3001\u304a
p2037
(lp2038
V\u5144
asV\u308b\u3082\u3093
p2039
(lp2040
V\u306d
ag790
ag790
asV\u3001\u7f8e\u4e5f
p2041
(lp2042
V\u306b
aV\u305f
aV\u305f
aV\u306b
aV\u306b
aV\u306b
asV\u5e30\u308b\u306e
p2043
(lp2044
V\u9045
aV\u9045
asV\u805e\u3044\u3066
p2045
(lp2046
V\u305f
asV\u3042\u3001\u7d17
p2047
(lp2048
V\u6c5f
aV\u6c5f
aV\u6c5f
asV\u3044\u3093\u3058
p2049
(lp2050
V\u3083
aV\u3083
aV\u3083
aV\u3083
asV\u3063\u305f\u3060
p2051
(lp2052
V\u3063
aV\u3063
asV\u3002\u307e\u3063
p2053
(lp2054
V\u305f
asV\u305f\u3093\u3060
p2055
(lp2056
V\u306d
aV\u2026
aV\u306d
asV\u306a\u3063\u305f
p2057
(lp2058
V\uff1f
aV\uff1f
aV\uff1f
aV\uff1f
asV\u3001\u306f\u308b
p2059
(lp2060
V\u3061
asV\u3084\uff01\u3069
p2061
(lp2062
V\u304b
asV\u305f\u3093\u3067
p2063
(lp2064
V\u3059
aV\u3057
asV\u8131\u3054\u3046
p2065
(lp2066
V\u3063
aV\u3063
ag790
asV\u3001\u3067\u3082
p2067
(lp2068
V\u2026
aV\u2026
aV\u2026
asV\u306b\u3001\u7d17
p2069
(lp2070
V\u6c5f
asV\u306f\u7f8e\u4e5f
p2071
(lp2072
V\u306e
asV\u2026\u3063\u3066
p2073
(lp2074
V\u9055
aV\u3053
aV\u305d
asV\u304b\u3089\u6b62
p2075
(lp2076
V\u3081
asV\u3083\u301c\u301c
p2077
(lp2078
V\u3063
aV\u3063
aV\u3063
aV\u3063
asg628
(lp2079
g790
ag790
asV\u3002\u307e\u3042
p2080
(lp2081
V\u6c17
aV\u6c17
asV\uff01\u3060\u3001
p2082
(lp2083
V\u8ab0
aV\u8ab0
aV\u8ab0
asV\u3048\u3048\u301c
p2084
(lp2085
V\u3001
asV\u305f\u3093\u3058
p2086
(lp2087
V\u3083
asV\u306a\u3063\u3066
p2088
(lp2089
V\u308b
aV\u308b
asV\u3068\u306b\uff01
p2090
(lp2091
V\u308f
asV\u3044\u3093\u3060
p2092
(lp2093
V\u3082
aV\u3088
aV\u3082
aV\u3082
aV\u3088
asV\u2026\u2026\u78ba
p2094
(lp2095
V\u304b
aV\u304b
asV\u306a\u3055\u3044
p2096
(lp2097
V\u3001
aV\u3001
aV\u3001
aV\u3001
aV\u3001
aV\u300f
aV\u3001
aV\u3001
aV\u3001
aV\u3001
aV\u3001
aV\u3001
aV\u3001
aV\u3001
aV\u3001
aV\u3001
aV\u3001
aV\u3001
aV\u3001
asV\u306e\u304a\u5144
p2098
(lp2099
V\u3061
aV\u3061
aV\u3061
aV\u3061
aV\u3061
aV\u3061
aV\u3061
aV\u3061
asV\u3001\u305d\u3093
p2100
(lp2101
V\u306a
aV\u306a
aV\u306a
asV\u3044\uff01\u3053
p2102
(lp2103
V\u308c
aV\u308c
asV\u30c3\u30c4\u30ea
p2104
(lp2105
V\uff01
asV\u3083\u3093\u6642
p2106
(lp2107
V\u3005
asV\u3001\u3053\u3063
p2108
(lp2109
V\u3061
aV\u3061
asV\u3055\u306a\u3044
p2110
(lp2111
V\u306e
aV\u3067
asV\u3001\u305d\u308c
p2112
(lp2113
V\u3063
aV\u306f
aV\u3058
aV\u306f
aV\u3063
aV\u3058
aV\u3058
aV\u306f
asV\u3071\u3044\uff1f
p2114
(lp2115
g790
ag790
asV\u3063\u305f\u306e
p2116
(lp2117
V\u3060
aV\uff1f
aV\uff1f
aV\u304a
asV\u306a\u4e8b\u8a00
p2118
(lp2119
V\u3063
aV\u3063
asV\u3083\u301c\u3063
p2120
(lp2121
V\uff01
asV\uff01\u3060\u304b
p2122
(lp2123
V\u3089
asV\u308c\u3057\u3061
p2124
(lp2125
V\u3083
asV\u5834\u5408\u3058
p2126
(lp2127
V\u3083
aV\u3083
asV\u9810\u3051\u308b
p2128
(lp2129
V\u306d
asg535
(lp2130
g790
aV\u7d17
asV\u3063\u3066\uff01
p2131
(lp2132
V\u30e0
ag790
ag790
ag790
asV\u306f\u308b\u3061
p2133
(lp2134
V\u3083
asV\u3063\u3066\uff1f
p2135
(lp2136
g790
ag790
asV\u3048\u3063\uff01
p2137
(lp2138
V\uff1f
aV\u3060
aV\uff1f
aV\u3060
aV\u3060
aV\uff1f
asV\uff01\uff1f\u3061
p2139
(lp2140
V\u3087
asV\u306d\uff01\u306b
p2141
(lp2142
V\u3057
aV\u3057
aV\u3057
aV\u3057
asV\uff5e\u3089\uff01
p2143
(lp2144
V\u307f
asV\uff01\uff1f\u306b
p2145
(lp2146
V\u3001
asV\u99c4\u76ee\u3067
p2147
(lp2148
V\u3001
asV\u99c4\u76ee\u3060
p2149
(lp2150
V\u3088
aV\u3088
asV\u3001\u30c0\u30c3
p2151
(lp2152
V\u541b
asV\u3061\u76ee\u306f
p2153
(lp2154
V\u306a
asV\u5931\u6557\u3002
p2155
(lp2156
V\u306b
aV\u306b
asV\u3066\u3089\u3063
p2157
(lp2158
V\u3057
asV\uff01\u3044\u3044
p2159
(lp2160
V\u3067
aV\u3067
asV\u524d\u3067\u3057
p2161
(lp2162
V\u3087
asV\u5b66\u6821\u3067
p2163
(lp2164
V\u4f55
aV\u4f55
aV\u3069
asV\u304b\u306b\u3043
p2165
(lp2166
V\u306b
aV\u306b
asV\u306e\u9045\u304f
p2167
(lp2168
V\u3057
aV\u3057
asV\u3063\uff01\u3060
p2169
(lp2170
V\u3001
aV\u3001
aV\u3001
asV\u3068\u30fc\u306b
p2171
(lp2172
V\u3044
asV\u3001\u30c0\u30e1
p2173
(lp2174
V\u2026
aV\u30c0
aV\u30c0
aV\uff01
aV\uff01
aV\uff01
aV\u2026
aV\u30c0
asV\u3044\u306a\u3041
p2175
(lp2176
V\u304a
aV\u2026
aV\u2026
aV\u3002
aV\u3001
aV\u3002
aV\u2026
ag790
aV\u304a
asV\uff01\u3044\u3063
p2177
(lp2178
V\u305f
asV\u3093\u8336\u5316
p2179
(lp2180
V\u3055
asV\u306f\u3041\uff5e
p2181
(lp2182
V\u3001
ag790
aV\u3001
asV\u306b\uff1f\u5165
p2183
(lp2184
V\u3063
asV\u304c\u90aa\u9b54
p2185
(lp2186
g790
asV\u9060\u616e\u3057
p2187
(lp2188
V\u306a
asV\u3082\u3068\u96f0
p2189
(lp2190
V\u56f2
asV\u30cf\u30f3\u98df
p2191
(lp2192
V\u3079
asV\u3001\u5b50\u4f9b
p2193
(lp2194
V\u3058
asV\u30e1\u30fc\u30fc
p2195
(lp2196
V\u30fc
asV\u3082\u306e\u306a
p2197
(lp2198
V\u3093
aV\u3093
aV\u3093
asV\u5931\u6557\u3058
p2199
(lp2200
V\u3083
asV\u3044\u4f55\u3057
p2201
(lp2202
V\u306b
asV\u3086\u308b\u3055
p2203
(lp2204
V\u30fc
asV\u30b9\u30b5\u30fc
p2205
(lp2206
V\u30d3
aV\u30d3
asV\u2026\u2026\u99c4
p2207
(lp2208
V\u76ee
aV\u76ee
asV\u3063\u3066\u308b
p2209
(lp2210
V\u308f
ag790
aV\u5834
aV\u5206
ag790
aV\u5834
aV\u308f
ag790
aV\u3051
aV\u3088
aV\uff01
aV\u3063
aV\u3051
aV\u5206
ag790
aV\uff01
asV\u3063\u3066\u3089
p2211
(lp2212
V\u3063
asV\u3063\u3066\u3082
p2213
(lp2214
V\u99c4
aV\u3057
aV\u3057
aV\u3046
asV\u308c\u3063\u3066
p2215
(lp2216
V\u8ab0
aV\u8ab0
asV\u306b\u3063\u3057
p2217
(lp2218
V\u3063
aV\u3063
aV\u3063
asV\u306f\u672c\u5f53
p2219
(lp2220
V\u306b
asV\u3044\u51fa\u3057
p2221
(lp2222
V\u305f
asV\uff1f\u3059\u3054
p2223
(lp2224
V\u3044
aV\u3044
asV\u3046\u3046\u3046
p2225
(lp2226
V\u3046
aV\uff5e
aV\u3046
aV\uff5e
aV\uff5e
asV\u3001\u8ab0\u3060
p2227
(lp2228
V\uff01
aV\uff01
aV\uff01
asV\u3063\u3066\u306d
p2229
(lp2230
V\u306b
asV\u3055\u304f\u3057
p2231
(lp2232
V\u3066
aV\u3066
asV\u51fa\u6765\u306a
p2233
(lp2234
V\u3044
aV\u3044
asV\u3044\u306a\u30fc
p2235
(lp2236
V\u3044
ag790
asV\u3066\u3001\u4f55
p2237
(lp2238
V\u304b
asV\u30d7\u30ed\u30ec
p2239
(lp2240
V\u30b9
aV\u30b9
asV\u3001\u8ab0\u3082
p2241
(lp2242
V\u898b
asV\u3084\u308d\u3084
p2243
(lp2244
V\u308d
aV\u308d
asV\u2026\u2026\u77e5
p2245
(lp2246
V\u3089
asV\u3063\u3066\u3070
p2247
(lp2248
V\u307b
asV\u308b\u3055\u30fc
p2249
(lp2250
V\u3093
asV\u3079\u305f\u3044
p2251
(lp2252
V\u306e
aV\uff1f
asV\u30fc\u3082\u5927
p2253
(lp2254
V\u597d
aV\u597d
asV\u306e\u304b\u306a
p2255
(lp2256
V\uff1f
aV\u30fc
aV\u30fc
asV\u3046\u3046\u3093
p2257
(lp2258
V\u2026
aV\u2026
aV\u2026
aV\u2026
aV\u2026
aV\u2026
asV\u3063\u3066\u305f
p2259
(lp2260
V\u306e
asV\u3068\u30fc\u30fc
p2261
(lp2262
V\u30fc
asV\u3054\u304f\u9854
p2263
(lp2264
V\u8272
asV\u306a\u65e5\u306b
p2265
(lp2266
V\u2026
asV\u3063\u3066\u9055
p2267
(lp2268
V\u3046
asV\u306e\u610f\u5730
p2269
(lp2270
V\u60aa
aV\u60aa
asV\u3063\u3066\u3053
p2271
(lp2272
V\u3068
asV\u305f\u304b\uff01
p2273
(lp2274
V\uff01
asV\u306f\u30c0\u30e1
p2275
(lp2276
V\uff01
asV\u30d5\u30eb\u30b3
p2277
(lp2278
V\u30fc
asV\u5acc
(lp2279
g790
asV\u5ff5\u3060\u306d
p2280
(lp2281
V\uff5e
asV\u3088\u3045\u3002
p2282
(lp2283
V\u3042
asV\u5ff5\u3060\u3063
p2284
(lp2285
V\u305f
asV\u9593\u304c\u3082
p2286
(lp2287
V\u3063
asV\u5225\u306b\u3001
p2288
(lp2289
V\u306d
asV\u3044\u306a\u3093
p2290
(lp2291
V\u3067
asV\u3042\u307e\u304c
p2292
(lp2293
V\u307f
aV\u307f
asV\u3042\u307e\u3042
p2294
(lp2295
V\u3002
asV\u3068\u3059\u308b
p2296
(lp2297
V\u306e
asV\u3048\u3048\uff5e
p2298
(lp2299
V\u2026
asV\u3063\u3066\u3001
p2300
(lp2301
V\u4ef2
aV\u4ef2
aV\u3084
asV\u3093\u306a\u4e8b
p2302
(lp2303
V\u8a00
aV\u8a00
aV\u306a
asV\u3093\u306a\u4e88
p2304
(lp2305
V\u5b9a
asV\u3051\u307e\u3057
p2306
(lp2307
V\u3066
aV\u3066
asV\u308b\u304b\u3089
p2308
(lp2309
V\u6b62
aV\u3002
aV\u3002
asV\u300e\u3054\u3081
p2310
(lp2311
V\u3093
asV\u3068\u306b\u3043
p2312
(lp2313
V\u306b
asV\u51fa\u304b\u3051
p2314
(lp2315
V\u3066
asV\u308b\u304b\u3082
p2316
(lp2317
V\u306d
aV\u306d
asV\u308b\u3061\u3083
p2318
(lp2319
V\u3093
asV\u306a\u30fc\u3044
p2320
(lp2321
V\u3044
asV\u306a\u3044\u306e
p2322
(lp2323
V\u30fc
aV\u30fc
aV\uff1f
aV\uff01
aV\u304b
aV\u304b
aV\uff1f
asV\u3063\u3068\u3044
p2324
(lp2325
V\u3044
aV\u3044
aV\u3044
aV\u3044
asV\u306a\u3044\u3068
p2326
(lp2327
V\u601d
aV\u2026
asV\u306a\u3044\u306a
p2328
(lp2329
V\u3041
aV\u3002
aV\u3041
aV\u3041
aV\u3002
aV\u3041
aV\u3041
asV\u6557\u5931\u6557
p2330
(lp2331
V\u3002
aV\u3002
aV\uff5e
asV\u306a\u3044\u3067
p2332
(lp2333
V\u3088
aV\u3057
aV\u3088
ag790
aV\u3088
asV\u306a\u3044\u3063
p2334
(lp2335
V\uff01
aV\uff01
aV\uff01
aV\uff01
asV\u305f\u306e\u304a
p2336
(lp2337
V\u5144
aV\u5144
aV\u5144
aV\u5144
asV\u304f\u308b\u306a
p2338
(lp2339
V\u3093
aV\u3093
asV\u8a00\u3046\u4e8b
p2340
(lp2341
V\u3092
asV\u306a\u3044\u304b
p2342
(lp2343
V\u3089
aV\u3089
aV\u3089
aV\u3089
aV\u3089
aV\u3089
asV\u3053\u306b\u3044
p2344
(lp2345
V\u308b
aV\u308b
asV\u3066\u3001\u4ef2
p2346
(lp2347
V\u3044
aV\u3044
asV\u307e\u3042\u3002
p2348
(lp2349
V\u305d
asV\u306a\u30fc\u306b
p2350
(lp2351
V\u3057
asV\u3063\u3068\u306f
p2352
(lp2353
V\u5973
asV\u306b\uff1f\u3069
p2354
(lp2355
V\u3046
aV\u3046
asV\u305f\u306e\u306b
p2356
(lp2357
V\u2026
aV\u3043
aV\u3043
asV\u306a\u3044\u3058
p2358
(lp2359
V\u3083
aV\u3083
asV\u3066\u884c\u304f
p2360
(lp2361
V\u306d
aV\u306d
asV\u305f\u306e\u3060
p2362
(lp2363
g790
asV\u306a\u3044\u3051
p2364
(lp2365
V\u3069
asV\u3088\uff1f\u306b
p2366
(lp2367
V\u3043
asV\u304b\u3001\u305d
p2368
(lp2369
V\u3093
aV\u3093
asV\u3063\u3068\u307f
p2370
(lp2371
V\u3083
aV\u3083
asV\u3063\u3068\u3001
p2372
(lp2373
V\u4f55
aV\u4f55
aV\u4f55
aV\u305d
asV\u3057\u3085\uff01
p2374
(lp2375
V\uff01
asV\u4e08\u592b\uff1f
p2376
(lp2377
g790
ag790
ag790
ag790
ag790
asV\u3044\u3046\u3053
p2378
(lp2379
V\u3068
aV\u3068
asV\u307e\u3042\u307e
p2380
(lp2381
V\u3042
asV\u3044\u3046\u304b
p2382
(lp2383
V\u3001
asV\u30fc\u305d\uff01
p2384
(lp2385
g790
ag790
asV\u4e08\u592b\uff01
p2386
(lp2387
V\u307f
aV\u307f
asV\uff01\u3067\u308c
p2388
(lp2389
V\u3067
asV\u4e8b\u7d50\u5a5a
p2390
(lp2391
V\u3057
asV\u3042\uff5e\u2026
p2392
(lp2393
V\u2026
aV\u2026
asg661
(lp2394
g790
asV\u306a\u3044\u3002
p2395
(lp2396
V\u3082
aV\u3082
asV\u3093\u3002\u2026
p2397
(lp2398
V\u2026
asV\u3083\u3063\uff01
p2399
(lp2400
V\u304a
asV\u305b\uff5e\u3093
p2401
(lp2402
g790
ag790
ag790
ag790
asV\u8fd1\u9854\u8272
p2403
(lp2404
V\u304c
asV\u7528\u4e8b\uff1f
p2405
(lp2406
g790
ag790
ag790
ag790
ag790
asV\u30c8\u3057\u3066
p2407
(lp2408
V\u6b32
aV\u6b32
asV\u2026\u77e5\u3089
p2409
(lp2410
V\u306a
asV\u3068\u3046\u306b
p2411
(lp2412
V\u3043
asV\u3067\u3063\u3057
p2413
(lp2414
V\u3087
aV\u3087
aV\u3087
aV\u3087
asV\u306b\u304b\u3044
p2415
(lp2416
V\u3044
asV\u307e\u30fc\u307e
p2417
(lp2418
V\u30fc
asV\u3044\u3046\u3082
p2419
(lp2420
V\u306e
aV\u306e
aV\u306e
asV\u3060\u3088\uff5e
p2421
(lp2422
g790
ag790
asV\u3057\u3063\u3057
p2423
(lp2424
V\u30fc
aV\u30fc
aV\u30fc
asV\u304a\u5144\u3061
p2425
(lp2426
V\u3083
aV\u3083
aV\u3083
aV\u3083
aV\u3083
aV\u3083
aV\u3083
aV\u3083
aV\u3083
aV\u3083
aV\u3083
aV\u3083
aV\u3083
aV\u3083
aV\u3083
aV\u3083
aV\u3083
aV\u3083
aV\u3083
aV\u3083
aV\u3083
aV\u3083
aV\u3083
aV\u3083
aV\u3083
aV\u3083
aV\u3083
aV\u3083
aV\u3083
aV\u3083
aV\u3083
aV\u3083
aV\u3083
aV\u3083
aV\u3083
aV\u3083
aV\u3083
aV\u3083
aV\u3083
aV\u3083
aV\u3083
aV\u3083
aV\u3083
aV\u3083
aV\u3083
aV\u3083
aV\u3083
aV\u3083
aV\u3083
aV\u3083
aV\u3083
aV\u3083
aV\u3083
aV\u3083
aV\u3083
aV\u3083
aV\u3083
aV\u3083
aV\u3083
aV\u3083
aV\u3083
aV\u3083
aV\u3083
aV\u3083
aV\u3083
aV\u3083
aV\u3083
aV\u3083
aV\u3083
aV\u3083
asV\u3084\u301c\u301c
p2427
(lp2428
V\u301c
asV\uff01\u8997\u304d
p2429
(lp2430
V\u9b54
aV\u9b54
aV\u9b54
aV\u9b54
asV\u3068\u3046\u304a
p2431
(lp2432
V\u5144
aV\u5144
asV\u308b\u3093\u3060
p2433
(lp2434
V\u3058
asV\u3046\u3063\u3066
p2435
(lp2436
g790
ag790
asV\u3046\u3063\u3068
p2437
(lp2438
V\uff01
aV\uff01
asV\u306a\u30fc\u30fc
p2439
(lp2440
V\u30fc
asV\uff01\u30a8\u30c3
p2441
(lp2442
V\u30c1
asV\u307b\u3093\u2026
p2443
(lp2444
V\u2026
asg607
(lp2445
g790
asV\u76ee\u99c4\u76ee
p2446
(lp2447
V\u3067
asV\u305f\u306e\u3088
p2448
(lp2449
V\u30fc
asV\u3042\u3076\u306a
p2450
(lp2451
V\u30fc
asV\u805e\u304b\u306a
p2452
(lp2453
V\u3044
aV\u3044
asV\u3089\u3060\u3088
p2454
(lp2455
V\u306b
asV\u30c8\u697d\u3057
p2456
(lp2457
V\u307f
aV\u307f
aV\u307f
asV\u3060\u3088\uff1f
p2458
(lp2459
g790
asV\u306a\u3044\u3088
p2460
(lp2461
V\uff1f
aV\uff1f
aV\u3045
aV\uff1f
aV\uff01
aV\uff1f
aV\uff1f
aV\u3046
ag790
ag790
asV\u3083\u3046\u3088
p2462
(lp2463
V\uff1f
aV\uff1f
aV\uff1f
asV\u7406\u3057\u3066
p2464
(lp2465
V\u308b
aV\u308b
asV\u306a\u3044\u3082
p2466
(lp2467
V\u3093
aV\u3093
asV\u3042\u3041\u2026
p2468
(lp2469
V\u2026
aV\u2026
asV\u3044\u3059\u3054
p2470
(lp2471
V\u3044
aV\u3044
asV\u306f\u3001\u4f55
p2472
(lp2473
V\u3092
aV\u304b
asV\u308b\u30fc\u3063
p2474
(lp2475
V\u3066
aV\u3066
asV\u3060\u3088\uff01
p2476
(lp2477
g790
ag790
aV\u306b
aV\uff01
ag790
ag790
ag790
asV\u30c3\u30d5\u30eb
p2478
(lp2479
V\u30b3
asV\u306a\u3044\u3093
p2480
(lp2481
V\u3060
aV\u3060
asV\u898b\u3061\u3083
p2482
(lp2483
V\u3063
asV\u306b\u3001\u3082
p2484
(lp2485
V\u3057
asV\uff01\u5931\u6557
p2486
(lp2487
V\u5931
asV\u30d7\u30ec\u30bc
p2488
(lp2489
V\u30f3
aV\u30f3
aV\u30f3
aV\u30f3
aV\u30f3
aV\u30f3
aV\u30f3
aV\u30f3
aV\u30f3
asV\u306b\u306f\uff1f
p2490
(lp2491
g790
ag790
ag790
asV\u3041\u2026\u2026
p2492
(lp2493
V\u305d
aV\u305d
ag790
aV\u3082
aV\u3053
ag790
ag790
aV\u305d
ag790
aV\u305d
ag790
ag790
ag790
asV\u3057\u305d\u3046
p2494
(lp2495
g790
ag790
asV\u306a\u306e\u3063
p2496
(lp2497
V\uff01
aV\uff01
asV\u308f\u306a\u3044
p2498
(lp2499
V\u3088
asV\u306a\u306e\u3060
p2500
(lp2501
V\uff01
asV\u306a\u306e\u3067
p2502
(lp2503
V\u3059
aV\u3059
asV\u30fc\u306f\u7121
p2504
(lp2505
V\u4e8b
asV\uff5e\uff5e\u3059
p2506
(lp2507
V\u3063
aV\u3063
asV\u2026\u3084\u30fc
p2508
(lp2509
V\u3089
asV\u3069\u3046\u306a
p2510
(lp2511
V\u306e
asV\u3069\u3046\u306b
p2512
(lp2513
V\u304b
aV\u304b
aV\u304b
asV\u3069\u3046\u3057
p2514
(lp2515
V\u305f
aV\u305f
aV\u305f
aV\u3066
aV\u3088
aV\u305f
aV\u305f
aV\u305f
aV\u305f
aV\u305f
aV\u305f
aV\u3088
aV\u305f
aV\u305f
aV\u305f
aV\u3088
aV\u305f
asV\u3082\u3046\u77e5
p2516
(lp2517
V\u3089
aV\u3089
aV\u3089
asV\u4e08\u592b\u5927
p2518
(lp2519
V\u4e08
aV\u4e08
aV\u4e08
asV\uff5e\uff5e\u3063
p2520
(lp2521
V\uff01
aV\uff01
asV\u3069\u3046\u3059
p2522
(lp2523
V\u308b
aV\u308b
asV\u3069\u3046\u3044
p2524
(lp2525
V\u3046
asV\u3044\u3088\u30fc
p2526
(lp2527
g790
ag790
asV\u3001\u30d0\u30a4
p2528
(lp2529
V\u30d0
asV\u305b\u306a\u3044
p2530
(lp2531
V\u3067
aV\u3067
asV\u3048\uff5e\u2026
p2532
(lp2533
V\u2026
asV\u3057\u3087\u30fc
p2534
(lp2535
g790
aV\u30fc
aV\u30fc
ag790
ag790
asV\u30c1\u30e3\u30fc
p2536
(lp2537
V\u30cf
asV\u3089\u3002\u3075
p2538
(lp2539
V\u308f
aV\u308f
asV\u3069\u3046\u304b
p2540
(lp2541
V\u3057
aV\u3057
aV\u3057
aV\u3057
asV\uff01\u3055\u3001
p2542
(lp2543
V\u5bd2
asV\u3082\u305d\u3093
p2544
(lp2545
V\u306a
asV\u4e8b\u3092\u805e
p2546
(lp2547
V\u304b
asV\u5bfe\u3060\u3088
p2548
(lp2549
V\uff1f
asV\uff01\u3082\u3046
p2550
(lp2551
V\uff01
aV\uff01
aV\u3086
asV\u30e1\u30c0\u30e1
p2552
(lp2553
V\uff5e
aV\uff5e
aV\u306a
aV\u3002
aV\uff5e
aV\u30fc
aV\uff5e
aV\u3002
asV\u30c0\u30c3\u541b
p2554
(lp2555
V\u30bf
asV\u306b\u3001\u30d7
p2556
(lp2557
V\u30ec
asV\u3042\u3001\u30c0
p2558
(lp2559
V\u30e1
aV\u30e1
asV\u3080\u2026\u2026
p2560
(lp2561
g790
ag790
asV\uff01\u30b9\u30b1
p2562
(lp2563
V\u30d9
aV\u30d9
aV\u30d9
asV\u3044\u300f\u3057
p2564
(lp2565
V\u3066
asV\u304b\u306a\u30fc
p2566
(lp2567
V\uff1f
aV\uff1f
asV\u308c\u3070\uff1f
p2568
(lp2569
V\u4eca
asV\u3089\u51fa\u304b
p2570
(lp2571
V\u3051
asV\u3057\u3002\u4efb
p2572
(lp2573
V\u305b
aV\u305b
asV\u306b\u306f\u5927
p2574
(lp2575
V\u4e08
asV\u4f55\u304b\u60aa
p2576
(lp2577
V\u3044
aV\u3044
asV\u3050\u304b\u3089
p2578
(lp2579
V\u3001
aV\u3001
asV\u306e\u3060\uff01
p2580
(lp2581
V\u7f8e
ag790
asV\u30fc\u30cf\u30f3
p2582
(lp2583
V\u98df
asV\u306b\uff01\uff01
p2584
(lp2585
g790
ag790
asV\u3057\u3087\u3046
p2586
(lp2587
V\u304c
aV\u304c
aV\u304c
aV\u304c
aV\u304c
aV\u304c
aV\u304c
aV\u304c
aV\u304c
asV\u3041\u306f\u3041
p2588
(lp2589
g790
asV\u3044\u308b\u3057
p2590
(lp2591
V\u3001
asV\u3044\u3088\u3046
p2592
(lp2593
V\u306b
asV\u3044\u3088\u3045
p2594
(lp2595
V\u3002
asV\u30df\u30eb\u30af
p2596
(lp2597
V\u306a
asV\u8997\u304d\u9b54
p2598
(lp2599
V\u3060
aV\u3060
aV\u3060
aV\u3060
asV\u306b\uff01\uff1f
p2600
(lp2601
g790
asV\u304d\u3060\u3088
p2602
(lp2603
g790
ag790
asV\u3044\u3088\u306d
p2604
(lp2605
g790
ag790
aV\uff5e
ag790
ag790
asV\u306b\u306d\uff01
p2606
(lp2607
V\u306b
asV\u3002\u30b5\u30fc
p2608
(lp2609
V\u30d3
aV\u30d3
asV\u3089\u51fa\u308b
p2610
(lp2611
V\u304b
asV\u306d\u3048\uff01
p2612
(lp2613
V\u4eca
aV\u4eca
asV\u306d\u3048\uff1f
p2614
(lp2615
g790
asV\u304f\u2026\u2026
p2616
(lp2617
V\u3002
asV\u307f\u3083\u30fc
p2618
(lp2619
V\u306d
aV\u30df
aV\u306f
aV\u3060
aV\u306e
aV\uff01
aV\u306b
aV\u306b
aV\u306b
aV\u5bdd
aV\u3082
aV\u3061
aV\u3061
aV\u3092
aV\u3092
aV\u3082
aV\u306f
aV\uff01
aV\u3082
aV\u306e
aV\u306e
aV\u5bdd
asV\u306b\u3001\u304a
p2620
(lp2621
V\u3063
aV\u3063
aV\u3063
aV\u3063
aV\u3063
aV\u3063
aV\u3063
aV\u3063
aV\u3063
aV\u3063
aV\u3063
aV\u3063
aV\u3063
aV\u3063
aV\u3063
aV\u3063
aV\u3063
aV\u3063
aV\u3063
aV\u3063
aV\u3063
aV\u3063
aV\u3063
aV\u3063
aV\u3063
asV\u3042\u3001\u305d
p2622
(lp2623
V\u3046
aV\u3046
aV\u3046
aV\u3046
aV\u3046
asV\u3093\u3001\u2026
p2624
(lp2625
V\u2026
asV\u3042\u3001\u3046
p2626
(lp2627
V\u3093
aV\u3093
aV\u3093
aV\u3046
aV\u3001
aV\u3093
aV\u3046
aV\u3046
asV\u3042\u3001\u3042
p2628
(lp2629
V\u308a
asV\u3044\u3064\u3082
p2630
(lp2631
V\u4e8c
aV\u3068
asV\u65e5\u306f\u5927
p2632
(lp2633
V\u5909
asV\u3042\u3001\u304a
p2634
(lp2635
V\u5144
aV\u5144
aV\u5144
aV\u8179
aV\u5144
aV\u5144
aV\u5144
aV\u5144
asV\u306b\u3001\u3061
p2636
(lp2637
V\u3083
aV\u3087
aV\u3087
aV\u3083
aV\u3087
asV\u304b\u306a\u3041
p2638
(lp2639
V\uff1f
aV\uff1f
aV\uff1f
aV\u2026
aV\u2026
aV\uff1f
asV\u30b3\u30fc\u30c8
p2640
(lp2641
V\u3092
aV\u3067
aV\u3092
asV\u304b\u306a\u3044
p2642
(lp2643
V\uff01
aV\u3068
aV\u3063
aV\u304b
asV\u306b\u3001\u306b
p2644
(lp2645
V\u3043
aV\u3043
aV\u3043
aV\u3043
asV\u3042\u3001\u307f
p2646
(lp2647
V\u3083
aV\u3083
asV\u5316\u3055\u306a
p2648
(lp2649
V\u3044
aV\u3044
asV\u306b\u3001\u306d
p2650
(lp2651
V\u3048
asV\u3057\u304f\u306d
p2652
(lp2653
g790
ag790
ag790
aV\uff01
aV\uff01
aV\uff01
asV\u3042\u3001\u306f
p2654
(lp2655
V\u308b
asV\u3053\u3001\u5b50
p2656
(lp2657
V\u4f9b
asV\u3042\u3001\u306a
p2658
(lp2659
V\u3093
aV\u3093
asV\u3048\uff01\u4eca
p2660
(lp2661
V\u3001
aV\u3001
asV\u2026\u4ed6\u306b
p2662
(lp2663
V\u306f
aV\u306f
asV\u308b\u306e\u306b
p2664
(lp2665
V\u3043
asV\u3089\u3048\u30fc
p2666
(lp2667
V\u30fc
asV\u3044\uff01\u30a8
p2668
(lp2669
V\u30c3
asg366
(lp2670
g790
ag790
asV\u308b\u306e\u3060
p2671
(lp2672
g790
aV\uff01
ag790
asV\u3002\u308f\u304b
p2673
(lp2674
V\u3063
asV\u8a71\u306f\u7d42
p2675
(lp2676
V\u308f
asV\u3068\u5f85\u3063
p2677
(lp2678
V\u3066
asV\u3066\u306a\u3093
p2679
(lp2680
V\u304b
asV\u3044\uff01\u30b9
p2681
(lp2682
V\u30b1
aV\u30b1
aV\u30b1
asV\u7f8e\u4e5f\u3082
p2683
(lp2684
V\u8131
aV\u8131
asg541
(lp2685
g790
asV\u308b\u306e\u304a
p2686
(lp2687
V\u5144
aV\u5144
aV\u5144
asV\u308b\u306e\u304b
p2688
(lp2689
V\u306a
asV\u304b\u60aa\u3044
p2690
(lp2691
V\u4e8b
aV\u4e8b
asV\u308b\u306e\u9045
p2692
(lp2693
V\u304f
aV\u304f
asV\u3093\u306b\u4f1a
p2694
(lp2695
V\u3063
asV\u301c\u3044\u3001
p2696
(lp2697
V\u3044
asV\u3046\u301c\u3057
p2698
(lp2699
V\u3087
asV\u2026\u305d\u308c
p2700
(lp2701
V\u3058
aV\u3058
aV\u3067
aV\u3067
aV\u3067
aV\u3067
asV\uff01\u3069\u304b
p2702
(lp2703
V\u306a
asV\u306f\u7121\u4e8b
p2704
(lp2705
V\u7d50
asV\u3067\u308c\u3067
p2706
(lp2707
V\u308c
asV\u3059\u308b\u3093
p2708
(lp2709
V\u3060
asV\u3051\u30fc\u30fc
p2710
(lp2711
g790
asV\u3093\u3060\uff5e
p2712
(lp2713
g790
ag790
asV\u3093\uff1f\u3069
p2714
(lp2715
V\u3046
aV\u3046
aV\u308c
asV\uff5e\u3001\u7d76
p2716
(lp2717
V\u5bfe
asV\u3093\uff1f\u306b
p2718
(lp2719
V\u3043
aV\u3043
asV\u3093\uff1f\u306a
p2720
(lp2721
V\u306b
aV\u306b
aV\u306b
asV\u2026\u305d\u3093
p2722
(lp2723
V\u306a
aV\u306a
aV\u306a
asV\u3093\u306b\u4f55
p2724
(lp2725
V\u304b
asV\u30c8\u30d9\u30a4
p2726
(lp2727
V\u30d3
asV\u304b\u3089\u306a
p2728
(lp2729
V\u3044
aV\u3044
asV\u3066\u4f55\uff1f
p2730
(lp2731
g790
asV\u306b\u30d7\u30ec
p2732
(lp2733
V\u30bc
aV\u30bc
aV\u30bc
asV\uff01\u3093\u3082
p2734
(lp2735
V\uff5e
aV\uff5e
asV\u3088\u3046\u306b
p2736
(lp2737
V\u306d
asV\u30dd\u30fc\u30ba
p2738
(lp2739
V\u3057
asV\u3093\uff1f\u304a
p2740
(lp2741
V\u5144
aV\u5144
asV\u3001\u5973\u306e
p2742
(lp2743
V\u5b50
aV\u5b50
asV\u3067\u308c\u3057
p2744
(lp2745
V\u3061
asV\u3060\u3081\u3060
p2746
(lp2747
V\u3081
asV\u30fc\u306f\u9810
p2748
(lp2749
V\u304b
asV\u3044\u3044\uff1f
p2750
(lp2751
g790
asV\u304b\u3057\u3066
p2752
(lp2753
V\u4e0b
aV\u3001
aV\u4e0b
aV\u4e0b
aV\u2026
asV\u2026\u305d\u3046
p2754
(lp2755
V\u306a
aV\u3060
aV\u3060
aV\u3060
aV\u3060
aV\u306a
aV\u3060
asV\uff01\u3070\u304b
p2756
(lp2757
V\u306b
aV\u306b
asV\u308b\u306e\u30fc
p2758
(lp2759
g790
asV\u3075\uff5e\u3093
p2760
(lp2761
V\u3001
aV\u3001
aV\u3001
aV\u2026
asV\u3044\u3044\uff01
p2762
(lp2763
V\u30b9
aV\u30b9
aV\u30b9
asV\u3048\u3078\u3078
p2764
(lp2765
V\u2026
asV\u3088\u3046\u3084
p2766
(lp2767
V\u304f
aV\u304f
aV\u304f
asV\u2026\u305d\u306e
p2768
(lp2769
V\u2026
asV\u3001\u307f\u3093
p2770
(lp2771
V\u306a
asV\u3046\u3001\u4f55
p2772
(lp2773
V\u3057
asV\u306a\u308b\u307b
p2774
(lp2775
V\u3069
aV\u3069
asV\u30e1\u3002\u4eca
p2776
(lp2777
V\u65e5
aV\u65e5
asV\u3059\u308b\u306e
p2778
(lp2779
V\u30fc
asV\u306d\u3047\uff5e
p2780
(lp2781
g790
ag790
asV\u3001\u307f\u3083
p2782
(lp2783
V\u30fc
aV\u30fc
aV\u30fc
asV\u5f53\u306b\u30c0
p2784
(lp2785
V\u30e1
asV\u306a\u4e88\u5b9a
p2786
(lp2787
V\u306a
asV\u304b\u3057\u305f
p2788
(lp2789
V\u306e
aV\u306e
aV\uff1f
aV\u3093
aV\u306e
aV\u306e
asV\u3001\u306d\u3048
p2790
(lp2791
V\uff1f
asV\u7f8e\u4e5f\u305f
p2792
(lp2793
V\u3061
aV\u3061
asV\u3044\u3066\u308b
p2794
(lp2795
V\u306e
asV\u306b\u3001\u4f55
p2796
(lp2797
V\u3057
asV\u3066\u306a\u3044
p2798
(lp2799
V\u3088
aV\u3088
aV\u304b
aV\u3088
asV\u307b\u3089\u307b
p2800
(lp2801
V\u3089
aV\u3089
aV\u3089
asV\u5cf6\u5148\u8f29
p2802
(lp2803
V\uff01
aV\uff01
aV\uff01
asV\u3041\uff5e\u3001
p2804
(lp2805
V\u5931
aV\u5931
asV\u9b54\u3060\uff01
p2806
(lp2807
g790
ag790
ag790
ag790
asV\u301c\u3001\u3073
p2808
(lp2809
V\u3063
aV\u3063
aV\u3063
asV\u3066\u308b\u5834
p2810
(lp2811
V\u5408
aV\u5408
asV\u3093\u307e\u8089
p2812
(lp2813
V\u307e
aV\u307e
asV\u304f\u308a\u3057
p2814
(lp2815
V\u305f
aV\u305f
aV\u305f
asV\u3001\u30c7\u30ec
p2816
(lp2817
V\u30c7
asV\u3083\u3044\uff01
p2818
(lp2819
g790
asV\u306a\u2026\u2026
p2820
(lp2821
g790
asV\u7f8e\u4e5f\u306e
p2822
(lp2823
V\u306a
asV\u7f8e\u4e5f\u306f
p2824
(lp2825
V\u3044
asV\u3093\u3068\u300e
p2826
(lp2827
V\u3054
asV\u7f8e\u4e5f\u306b
p2828
(lp2829
V\u4f55
aV\u30d7
aV\u30d7
aV\u8a00
aV\u7528
aV\u8a00
aV\u30d7
aV\u7528
aV\u7528
aV\u4f55
aV\u4f55
aV\u4f55
asV\u306f\u5929\u6c17
p2830
(lp2831
V\u3082
asV\u30b5\u30fc\u30d3
p2832
(lp2833
V\u30b9
aV\u30b9
aV\u30b9
aV\u30b9
asV\u7121\u7406\u3057
p2834
(lp2835
V\u3066
aV\u3066
asV\u7f8e\u4e5f\u3060
p2836
(lp2837
V\u3063
aV\u3063
asV\u3044\uff01\u3059
p2838
(lp2839
V\u3050
asV\u601d\u3063\u305f
p2840
(lp2841
V\u3088
asV\u3084\uff5e\uff5e
p2842
(lp2843
V\uff5e
asV\uff01\uff01\u30c0
p2844
(lp2845
V\u30e1
asV\u305f\u2026\u2026
p2846
(lp2847
g790
ag790
ag790
ag790
asV\u3058\u3087\u3076
p2848
(lp2849
V\u3060
asV\u3079\u30fc\u305d
p2850
(lp2851
V\uff01
aV\uff01
asV\u3059\u304c\u304a
p2852
(lp2853
V\u5144
asV\u306e\u3067\u3059
p2854
(lp2855
V\uff01
aV\uff01
asV\u3001\u7d17\u6c5f
p2856
(lp2857
V\u3061
aV\u3061
aV\u3061
aV\u3061
asV\u306b\u306e\u99ac
p2858
(lp2859
V\u9e7f
aV\u9e7f
aV\u9e7f
aV\u9e7f
aV\u9e7f
aV\u9e7f
asV\u30fc\u30c8\u3092
p2860
(lp2861
V\u30d7
aV\u30d7
asV\u308b\u3088\u30fc
p2862
(lp2863
g790
asV\u3075\u3047\u2026
p2864
(lp2865
V\u2026
aV\u2026
aV\u2026
aV\u2026
aV\u2026
asV\u3064\u3044\u3066
p2866
(lp2867
V\u304d
aV\u304d
asV\u30e1\u306a\u7269
p2868
(lp2869
V\u306f
asV\u30fc\u30fc\u3045
p2870
(lp2871
V\uff01
asV\u306b\u306e\u59b9
p2872
(lp2873
V\u3060
asV\u306e\u3063\uff01
p2874
(lp2875
g790
ag790
asV\u3048\uff1f\u512a
p2876
(lp2877
V\u308c
asV\u307b\u3001\u672c
p2878
(lp2879
V\u5f53
asV\u3069\u308c\u306e
p2880
(lp2881
V\u3053
asV\u2026\u306f\uff5e
p2882
(lp2883
V\u3044
asV\u306a\u301c\u306b
p2884
(lp2885
V\u301c
asV\u3057\u3066\u5f7c
p2886
(lp2887
V\u5973
aV\u5973
asV\u77ed\u3059\u304e
p2888
(lp2889
V\u308b
asV\u3046\u3060\u304b
p2890
(lp2891
V\u3089
aV\u3089
aV\u3089
asV\u3046\u3060\u304a
p2892
(lp2893
V\u5144
asV\u7121\u3044\u3093
p2894
(lp2895
V\u3058
aV\u3058
asV\u301c\u3063\uff01
p2896
(lp2897
g790
ag790
ag790
ag790
ag790
ag790
asV\u306a\u306e\u5618
p2898
(lp2899
V\u3060
asV\u306a\u3053\u3068
p2900
(lp2901
V\u3070
aV\u3088
aV\u306a
aV\u3070
aV\u306a
aV\u3088
aV\u8a00
asV\u30fc\u30c8\u30d9
p2902
(lp2903
V\u30a4
asV\u306f\u5927\u5909
p2904
(lp2905
V\u3060
asV\u3070\u304b\u306b
p2906
(lp2907
V\u3043
aV\u3043
asV\u3093\u306a\u8a00
p2908
(lp2909
V\u3044
aV\u3044
asV\u3048\u3001\u3048
p2910
(lp2911
V\u30fc
asV\u3061\u6025\u3050
p2912
(lp2913
V\u304b
aV\u304b
asV\u3043\u306b\u2026
p2914
(lp2915
V\u2026
aV\u2026
aV\u2026
aV\u2026
aV\u2026
aV\u2026
aV\u2026
aV\u2026
aV\u2026
aV\u2026
asV\u3046\u3044\u3044
p2916
(lp2917
V\uff01
aV\uff01
aV\uff01
asV\u3046\u3044\u3046
p2918
(lp2919
V\u3082
aV\u4e8b
aV\u4e8b
aV\u3053
aV\u4e8b
aV\u3053
aV\u3082
aV\u3082
asV\u6d41\u3055\u308c
p2920
(lp2921
V\u3061
asV\u3057\u305f\u3088
p2922
(lp2923
V\uff1f
asV\uff01\uff01\u3055
p2924
(lp2925
V\u3001
asV\u6c17\u3082\u3044
p2926
(lp2927
V\u3044
asV\u3046\u3060\u3088
p2928
(lp2929
V\u306d
aV\u306d
aV\u306d
aV\u306d
aV\uff5e
aV\u306d
aV\u306d
aV\u306d
aV\u306d
aV\u306d
asV\u3093\u304c\u5fc3
p2930
(lp2931
V\u914d
asV\u30a6\u30e1\u3061
p2932
(lp2933
V\u3083
aV\u3083
aV\u3083
aV\u3083
asV\u76ee\u306f\u306a
p2934
(lp2935
V\u3044
asV\u3060\u9a5a\u304b
p2936
(lp2937
V\u305b
asV\u3048\u3001\u3060
p2938
(lp2939
V\u3001
asV\u306b\u30fc\uff1f
p2940
(lp2941
V\u7f8e
aV\u7f8e
aV\u7f8e
asV\uff01\uff01\u3069
p2942
(lp2943
V\u3046
asV\u3044\u3064\u304b
p2944
(lp2945
V\u75f4
aV\u75f4
aV\u75f4
asV\u2026\u3053\u3093
p2946
(lp2947
V\u306a
asV\uff01\uff01\u3070
p2948
(lp2949
V\u304b
aV\u304b
asV\u30fc\u306b\u3057
p2950
(lp2951
V\u3066
asV\u3001\u3084\u3089
p2952
(lp2953
V\u3057
asV\uff01\u305d\u3093
p2954
(lp2955
V\u306a
asV\u3044\u3064\u3044
p2956
(lp2957
V\u3066
aV\u3066
asV\u3001\u3044\u3089
p2958
(lp2959
V\u3063
asV\u3089\u3001\u3044
p2960
(lp2961
V\u3044
aV\u3044
asV\u7d39\u4ecb\u3057
p2962
(lp2963
V\u306a
asV\u4eba\u3067\u4f55
p2964
(lp2965
V\u3057
aV\u3057
asV\u3043\u306b\u3068
p2966
(lp2967
V\u30a6
asV\u3089\u3001\u305d
p2968
(lp2969
V\u308c
aV\u308c
asV\u30e1\uff5e\u2026
p2970
(lp2971
V\u2026
aV\u2026
asV\u3093\u56f0\u308b
p2972
(lp2973
V\u3088
asV\u30fc\u306b\u304a
p2974
(lp2975
V\u571f
asV\u611b\u3044\u306a
p2976
(lp2977
V\u3041
asV\uff01\u304a\u3001
p2978
(lp2979
V\u304a
asV\u30fc\u306b\u3044
p2980
(lp2981
V\u3064
asV\u611b\u3044\u3067
p2982
(lp2983
V\u3057
asV\u30fc\u30c8\u3067
p2984
(lp2985
V\u3088
asV\u4e5f\u305f\u3061
p2986
(lp2987
V\u6025
aV\u6025
asV\u3093\u304b\u3044
p2988
(lp2989
V\u3064
asV\u3066\u308b\uff01
p2990
(lp2991
g790
ag790
asV\u3089\u3001\u9060
p2992
(lp2993
V\u616e
asV\u3066\u5973\u306e
p2994
(lp2995
V\u5b50
aV\u5b50
asV\u30fc\u306b\u306f
p2996
(lp2997
V\u5206
aV\u5206
asV\u3060\uff01\u3053
p2998
(lp2999
V\u3089
aV\u3089
aV\u3089
asV\u3066\u308b\uff1f
p3000
(lp3001
g790
asV\uff5e\u3001\u3046
p3002
(lp3003
V\u3093
asV\u30f3\u30d1\u30a4
p3004
(lp3005
V\u3001
asV\u3052\u306a\u3044
p3006
(lp3007
V\u3088
aV\u3088
asV\u3055\u3093\u3092
p3008
(lp3009
V\u90e8
aV\u90e8
asV\u305f\u30fc\uff01
p3010
(lp3011
V\u306b
asV\u3044\u3044\u59b9
p3012
(lp3013
V\u3060
asV\uff5e\u3057\u3087
p3014
(lp3015
V\u3046
asV\u53cb\u9054\u7d39
p3016
(lp3017
V\u4ecb
asV\u3046\uff5e\u3001
p3018
(lp3019
V\u3057
aV\u3057
asV\u3060\u3068\u30fc
p3020
(lp3021
V\uff01
asV\u3067\u4f55\u304b
p3022
(lp3023
V\u60aa
aV\u60aa
asV\u3001\u307e\u305f
p3024
(lp3025
V\u306d
aV\u306d
asV\u30e0\u30c3\u30c4
p3026
(lp3027
V\u30ea
asV\u3066\u9055\u3046
p3028
(lp3029
V\u3067
asV\u3067\u4f55\u3057
p3030
(lp3031
V\u3066
aV\u3066
asV\u308d\u3093\u3060
p3032
(lp3033
V\u3088
asV\u305d\u308c\u306b
p3034
(lp3035
V\u3057
aV\u306a
asV\u3082\u3046\u3086
p3036
(lp3037
V\u308b
asV\u306b\u30c0\u30e1
p3038
(lp3039
V\u30c0
asV\u3002\u307f\u3083
p3040
(lp3041
V\u30fc
aV\u30fc
asV\u3048\uff1f\u305d
p3042
(lp3043
V\u3001
aV\u3001
asV\u884c\u304f\u308f
p3044
(lp3045
V\u3051
asV\u3048\uff1f\u3059
p3046
(lp3047
V\u3054
aV\u3054
asV\u3060\u3044\u307e
p3048
(lp3049
V\u30fc
aV\u301c
aV\u301c
aV\u301c
aV\u301c
asV\u3048\uff1f\u3042
p3050
(lp3051
V\u3001
aV\u3001
aV\u3001
aV\u3001
aV\u3001
aV\u3001
asV\u306b\u3057\u3057
p3052
(lp3053
V\u3057
aV\u3057
aV\u3057
aV\u3057
aV\u3057
aV\u3057
aV\u3057
aV\u3057
aV\u3063
aV\u3063
aV\u3063
aV\u3057
aV\u3057
aV\u3057
aV\u3057
asV\u3048\uff1f\u304a
p3054
(lp3055
V\u3063
aV\u3063
asV\u2026\u6b8b\u5ff5
p3056
(lp3057
V\u3060
asV\u306b\u3057\u305f
p3058
(lp3059
V\u65b9
aV\u65b9
asV\u3067\u3053\u3093
p3060
(lp3061
V\u306a
asV\u3093\u3002\u3075
p3062
(lp3063
V\u304b
asV\u306b\u3057\u3066
p3064
(lp3065
V\u308b
aV\u308b
aV\u3082
aV\u308b
aV\u308b
aV\u308b
aV\u308b
aV\u308b
asV\u3044\u3089\u3063
p3066
(lp3067
V\u3057
asV\u3046\uff5e\u3057
p3068
(lp3069
V\u3087
asV\u3048\uff1f\u3067
p3070
(lp3071
V\u3001
aV\u3001
asV\u308a\u9053\u3057
p3072
(lp3073
V\u3066
aV\u3066
asV\u6025\u3050\u304b
p3074
(lp3075
V\u3089
aV\u3089
asV\u3075\u3063\u3001
p3076
(lp3077
V\u305d
aV\u56f0
aV\u5f8c
aV\u56f0
asV\u306b\u3083\u30fc
p3078
(lp3079
V\u30fc
aV\u30fc
aV\u30fc
asV\u3048\uff1f\u3069
p3080
(lp3081
V\u3001
aV\u3001
asV\u3082\u3046\u3044
p3082
(lp3083
V\u3044
aV\u3044
aV\u3044
asV\u3060\u3063\uff01
p3084
(lp3085
V\u306b
aV\u306b
asV\u3076\u3060\u3088
p3086
(lp3087
V\uff01
asV\u3082\u3093\u306d
p3088
(lp3089
g790
asV\u305f\u3061\u6025
p3090
(lp3091
V\u3050
aV\u3050
asV\u3066\u4efb\u305b
p3092
(lp3093
V\u3066
aV\u3066
asV\u306e\u5618\u3060
p3094
(lp3095
V\u3088
asV\u30fc\u3093\u3060
p3096
(lp3097
V\u3063
aV\u3063
asV\u3057\u3001\u3057
p3098
(lp3099
V\u307e
aV\u307e
aV\u307e
asV\u306b\u3083\u301c
p3100
(lp3101
V\u301c
aV\u301c
aV\u301c
aV\u301c
asV\u306a\u3042\u306b
p3102
(lp3103
V\uff1f
asV\u306e\u8a71\u306f
p3104
(lp3105
V\u7f6e
aV\u3044
asV\u3067\u30fc\u3079
p3106
(lp3107
V\u30fc
aV\u30fc
asV\u884c\u304f\u306d
p3108
(lp3109
g790
ag790
asV\u3057\u3001\u307f
p3110
(lp3111
V\u3093
asV\u3046\uff5e\u3093
p3112
(lp3113
V\u2026
aV\u3001
aV\u3001
asV\u3068\u3001\u305d
p3114
(lp3115
V\u308c
asV\u308c\uff1f\u304a
p3116
(lp3117
V\u5144
aV\u5144
aV\u5144
asV\u4e8c\u4eba\u3067
p3118
(lp3119
V\u4f55
aV\u3044
aV\u4f55
asV\u3082\u3046\u3001
p3120
(lp3121
V\u306b
aV\u305d
aV\u4f55
asV\u3055\u305b\u306a
p3122
(lp3123
V\u3044
asV\u898b\u305b\u3066
p3124
(lp3125
g790
ag790
asV\u305f\u306d\uff5e
p3126
(lp3127
V\u3063
aV\u3063
asV\u3089\u306b\u3043
p3128
(lp3129
V\u306b
asV\u3046\uff01\u306b
p3130
(lp3131
V\u3043
aV\u3043
aV\u3043
asg205
(lp3132
g790
asV\u308b\u306d\uff01
p3133
(lp3134
g790
asV\u304c\u904a\u3073
p3135
(lp3136
V\u306b
aV\u306b
asV\u30ec\u30b9\u266a
p3137
(lp3138
V\u30d7
ag790
asV\u3093\u304f\u3089
p3139
(lp3140
V\u3044
asV\u3046\uff01\u3059
p3141
(lp3142
V\u3050
asV\u30fc\u30e0\u306e
p3143
(lp3144
V\u4e8b
asV\u3055\u3093\u306f
p3145
(lp3146
V\u7f8e
asV\u3055\u3093\u306a
p3147
(lp3148
V\u3093
aV\u3093
asV\u3046\uff01\u304a
p3149
(lp3150
V\u5144
aV\u5144
asV\u7121\u4e8b\u7d50
p3151
(lp3152
V\u5a5a
asV\u30fc\u3093\u3001
p3153
(lp3154
V\u4eca
aV\u30c0
aV\u305d
asV\u3001\u5e30\u3063
p3155
(lp3156
V\u3066
asV\u304b\u3089\u51fa
p3157
(lp3158
V\u304b
asV\u3001\u4f55\u304b
p3159
(lp3160
V\u3044
aV\u3063
aV\u3044
aV\u3063
asV\u3001\u4f55\u304c
p3161
(lp3162
V\u98df
asV\u305d\u306e\u307e
p3163
(lp3164
V\u3093
asV\u30b9\u266a\u30d7
p3165
(lp3166
V\u30ed
asV\u7a7a\u3044\u3066
p3167
(lp3168
V\u308b
asV\u8fd1\u5b66\u6821
p3169
(lp3170
V\u3067
asV\u3063\u305f\uff01
p3171
(lp3172
V\u304a
asV\u3001\u4f55\u3063
p3173
(lp3174
V\u3066
asV\u306f\u5206\u304b
p3175
(lp3176
V\u308b
aV\u308b
aV\u308b
aV\u308b
asV\u3082\u307f\u3083
p3177
(lp3178
V\u30fc
aV\u30fc
asV\u30e1\u306a\u306e
p3179
(lp3180
V\u3067
aV\u3067
asV\u7d76\u5bfe\u3060
p3181
(lp3182
V\u3088
asV\u3050\u8131\u3054
p3183
(lp3184
V\u3046
asV\u3063\u305f\uff1f
p3185
(lp3186
g790
ag790
ag790
ag790
ag790
ag790
ag790
asV\u5618\uff01\u305d
p3187
(lp3188
V\u3093
asV\u3001\u3046\u308b
p3189
(lp3190
V\u3055
asV\u4e8b\u306b\u3057
p3191
(lp3192
V\u305f
aV\u305f
asV\u30a6\u30a3\u30fc
p3193
(lp3194
V\u30c8
asV\u3093\u3060\u9a5a
p3195
(lp3196
V\u304b
asV\u3001\u5909\u306a
p3197
(lp3198
V\u3053
asV\u3057\u305f\u3093
p3199
(lp3200
V\u3058
asV\u3001\u3046\u3093
p3201
(lp3202
g790
ag790
ag790
aV\u2026
ag790
aV\u2026
ag790
ag790
asV\u308b\u3063\u3066
p3203
(lp3204
V\u8a00
aV\uff01
asV\u3070\uff1f\u4eca
p3205
(lp3206
V\u65e5
asV\u3053\u306e\u99ac
p3207
(lp3208
V\u9e7f
aV\u9e7f
aV\u9e7f
asV\u306e\u306a\u3093
p3209
(lp3210
V\u3060
aV\u3060
aV\u3060
asV\u3002\u307e\u3055
p3211
(lp3212
V\u304b
aV\u304b
asV\u308a\u7121\u7406
p3213
(lp3214
V\uff01
aV\uff01
aV\uff01
asV\u65e5\u306f\u307f
p3215
(lp3216
V\u3083
aV\u3083
asV\u3063\u305f\uff5e
p3217
(lp3218
V\u3063
aV\u3001
asV\u96a0\u3057\u3066
p3219
(lp3220
V\u3082
aV\u3082
asV\u3042\uff01\u7d17
p3221
(lp3222
V\u6c5f
asV\u3044\u3002\u3082
p3223
(lp3224
V\u3063
aV\u3063
asV\u3001\u3046\u3046
p3225
(lp3226
V\u3093
aV\u3093
aV\u3093
aV\u3093
aV\u3093
asV\u306e\u306a\u306e
p3227
(lp3228
g790
asV\u308c\u306e\u3053
p3229
(lp3230
V\u3068
asV\u8179\u3059\u3044
p3231
(lp3232
V\u305f
aV\u305f
asV\u305f\u304f\u2026
p3233
(lp3234
V\u2026
asV\u3046\u308f\u3041
p3235
(lp3236
V\u3001
asV\u2026\u3042\u3084
p3237
(lp3238
V\u3057
asV\u3069\u3044\u3066
p3239
(lp3240
V\u3069
aV\uff5e
aV\u3069
aV\uff5e
aV\u3069
aV\uff5e
asV\u2026\u3042\u308a
p3241
(lp3242
V\u304c
aV\u304c
asV\u30b1\u30d9\uff01
p3243
(lp3244
V\u77e5
aV\u77e5
aV\u77e5
asV\u30e1\u30fc\uff01
p3245
(lp3246
V\u305f
asV\u3057\u305f\u306e
p3247
(lp3248
V\uff1f
aV\uff1f
aV\uff1f
aV\u304a
aV\uff1f
aV\u304a
aV\uff1f
aV\uff1f
aV\uff1f
aV\u306b
aV\uff1f
aV\uff1f
aV\uff1f
aV\uff1f
aV\uff1f
aV\uff1f
aV\uff1f
aV\uff1f
aV\u304a
aV\u306b
aV\uff1f
aV\uff1f
aV\u306f
aV\uff1f
asV\uff01\u305b\u3063
p3249
(lp3250
V\u304b
asV\u3066\u640d\u3057
p3251
(lp3252
V\u3061
asV\u3081\u3060\u3081
p3253
(lp3254
V\u30fc
asV\u30bf\u30aa\u30eb
p3255
(lp3256
V\uff5e
asV\u3068\u3042\u3063
p3257
(lp3258
V\u305f
aV\u305f
asV\u826f\u304f\u306a
p3259
(lp3260
V\u3063
asV\u3088\u304a\u5144
p3261
(lp3262
V\u3061
aV\u3061
asV\u9811\u5f35\u3063
p3263
(lp3264
V\u3066
asV\u3055\u3044\uff01
p3265
(lp3266
V\u30a8
aV\u3082
asV\u3084\u3063\u3055
p3267
(lp3268
V\u3057
asV\u308c\u3042\u308c
p3269
(lp3270
V\uff5e
aV\uff5e
asV\u9ed2\u3044\u732b
p3271
(lp3272
V\u304c
aV\u304c
asV\u3066\u3001\u3084
p3273
(lp3274
V\u3089
asV\u30c0\u30e1\uff01
p3275
(lp3276
g790
ag790
aV\u3084
aV\u3084
ag790
aV\u3084
asV\u3001\u4f55\u3088
p3277
(lp3278
V\u301c
asV\u8336\u5316\u3055
p3279
(lp3280
V\u306a
aV\u306a
asV\u30e1\u306a\u3093
p3281
(lp3282
V\u3060
aV\u3060
asV\u3001\u3046\u3001
p3283
(lp3284
V\u3046
asV\u306e\u99ac\u9e7f
p3285
(lp3286
V\u30fc
aV\u30fc
aV\u306a
aV\u30fc
aV\u306a
aV\u306a
aV\u30fc
aV\u30fc
aV\u30fc
asV\u3057\u305f\u301c
p3287
(lp3288
g790
ag790
ag790
asV\u3001\u4f55\u3092
p3289
(lp3290
V\u3084
aV\u2026
aV\u2026
aV\u2026
asV\u30d8\u30de\u3057
p3291
(lp3292
V\u306a
asV\u3083\u3093\u4f55
p3293
(lp3294
V\u3067
aV\u3067
aV\u3057
asV\u3002\u30d7\u30ec
p3295
(lp3296
V\u30bc
aV\u30bc
aV\u30bc
asV\u3063\u3055\u3057
p3297
(lp3298
V\uff5e
asV\u305f\u3044\u306a
p3299
(lp3300
V\u3093
aV\u3044
asV\u305f\u3044\u306e
p3301
(lp3302
g790
aV\uff1f
aV\uff1f
asV\u3053\u3063\u3061
p3303
(lp3304
V\u306b
aV\u306b
asV\u6c17\u6301\u3061
p3305
(lp3306
V\u306f
aV\u306f
asV\u3088\uff5e\u3002
p3307
(lp3308
V\u3082
asV\u3044\u306f\uff5e
p3309
(lp3310
V\u3044
asV\u3093\u6642\u3005
p3311
(lp3312
V\u51b4
asV\u3081\u30fc\u3002
p3313
(lp3314
V\u7f6e
asV\u3093\u3067\u3059
p3315
(lp3316
V\u304b
asV\u2026\u2026\u307e
p3317
(lp3318
V\u3063
aV\u3093
asV\u3044\u4e8b\u3092
p3319
(lp3320
V\u3057
aV\u3057
asV\u3042\u3051\u307e
p3321
(lp3322
V\u3057
aV\u3057
asV\u2026\u2026\u3075
p3323
(lp3324
V\u3047
aV\u3045
aV\u306b
aV\u3047
aV\u3045
aV\u3045
aV\u306b
aV\u3045
asV\u3080\u306f\u3080
p3325
(lp3326
V\u306f
ag790
asV\u3060\u3001\u8ab0
p3327
(lp3328
V\u3060
aV\u3060
aV\uff1f
aV\u3082
aV\u3060
aV\uff1f
aV\uff1f
asV\u4eca\u5e74\u306e
p3329
(lp3330
V\u4e88
aV\u4e88
asV\u2026\u2026\u306b
p3331
(lp3332
V\u3043
aV\u3043
asV\u2026\u2026\u306a
p3333
(lp3334
V\u308b
aV\u306b
aV\u306b
aV\u306b
aV\u3044
aV\u306b
aV\u3093
asV\u2026\u2026\u3069
p3335
(lp3336
V\u3046
aV\u3046
aV\u3046
aV\u3046
asV\u2026\u2026\u3067
p3337
(lp3338
V\u3082
asV\u3084\u3089\u3057
p3339
(lp3340
V\uff5e
asV\u2026\u2026\u3063
p3341
(lp3342
V\u3066
aV\u3066
aV\u3066
asV\u3057\u3002\u6b8b
p3343
(lp3344
V\u5ff5
asV\u3082\u3046\u52dd
p3345
(lp3346
V\u3061
asV\u2026\u2026\u305d
p3347
(lp3348
V\u3093
aV\u3046
aV\u306e
aV\u308c
aV\u3046
aV\u3046
aV\u3046
aV\u3093
aV\u3093
aV\u3046
aV\u308c
aV\u3046
aV\u3046
aV\u308c
aV\u308c
aV\u308c
aV\u308c
aV\u3001
asV\u306b\u5e30\u308b
p3349
(lp3350
V\u306e
aV\u306e
asV\u3066\u3044\u3044
p3351
(lp3352
V\u3088
asV\u2026\u2026\u3059
p3353
(lp3354
V\u30fc
asV\u3054\u3081\u3093
p3355
(lp3356
V\u306a
asV\u2026\u2026\u3057
p3357
(lp3358
V\u3087
asV\u3060\u3081\u30fc
p3359
(lp3360
V\u3002
asV\u2026\u2026\u9055
p3361
(lp3362
V\u3046
aV\u3046
asV\u2026\u2026\u3053
p3363
(lp3364
V\u3093
asV\u5f85\u3057\u3066
p3365
(lp3366
V\u640d
asV\u306f\u30b9\u30b1
p3367
(lp3368
V\u30d9
asV\u3048\u3066\u3088
p3369
(lp3370
g790
ag790
asV\u3048\u3066\u308b
p3371
(lp3372
V\u3088
asV\u2026\u2026\u304a
p3373
(lp3374
V\u5144
aV\u5144
aV\u3084
aV\u5144
aV\u5144
aV\u5144
aV\u3084
asV\u2026\u2026\u3048
p3375
(lp3376
V\u3001
aV\u30fc
asV\u2026\u2026\u3046
p3377
(lp3378
V\u3093
aV\u3093
aV\u3001
aV\u3093
asV\u3088\u306d\u2026
p3379
(lp3380
V\u2026
aV\u2026
aV\u2026
aV\u2026
asV\u2026\u2026\u3044
p3381
(lp3382
V\u3044
aV\u3044
asV\u2026\u2026\u3042
p3383
(lp3384
V\u308a
aV\uff01
aV\u308a
aV\u3084
asV\u30fc\u3001\u305d
p3385
(lp3386
V\u308c
asV\u3089\u306a\u3093
p3387
(lp3388
V\u306a
aV\u306a
aV\u306a
asV\u3082\u306d\u3047
p3389
(lp3390
g790
asV\u3002\u306b\u3057
p3391
(lp3392
V\u3057
aV\u3057
asV\u306f\u5bb6\u306b
p3393
(lp3394
V\u5e30
aV\u5e30
asV\u30fc\u3001\u304a
p3395
(lp3396
V\u5144
asV\u4e8b\u3057\u305f
p3397
(lp3398
V\uff1f
aV\uff1f
asV\u3046\u4e8b\u3092
p3399
(lp3400
V\u805e
asV\u304c\u3068\u30fc
p3401
(lp3402
V\uff01
aV\uff01
aV\u3002
aV\uff01
aV\u3002
aV\uff01
aV\u3002
asV\u697d\u3057\u307f
p3403
(lp3404
V\u3060
aV\u306b
aV\u306b
aV\u306b
asV\u3088\u3001\u306b
p3405
(lp3406
V\u3043
aV\u3043
aV\u3043
asV\u3042\u308c\u3001
p3407
(lp3408
V\u304a
asV\u3001\u306a\uff5e
p3409
(lp3410
V\u3093
asV\u697d\u3057\u3044
p3411
(lp3412
V\u3088
aV\u3088
aV\u3088
asV\u3093\u3082\uff5e
p3413
(lp3414
V\u3002
aV\u3002
asV\u6557\uff5e\u266a
p3415
(lp3416
g790
asV\u4f55\u3088\u301c
p3417
(lp3418
g790
asV\u2026\u2026\u3002
p3419
(lp3420
V\u30c0
aV\u4f55
aV\u304f
aV\u4f55
aV\u304a
aV\u4f55
aV\u3059
aV\u30c0
asV\u616e\u3057\u306a
p3421
(lp3422
V\u3044
asV\u3046\u3093\u3001
p3423
(lp3424
V\u3044
aV\u307e
aV\u2026
aV\u3044
aV\u305d
aV\u3044
aV\u4efb
aV\u307e
aV\u5e73
aV\u30d0
aV\u4efb
aV\u9762
asV\u3046\u3093\u3002
p3425
(lp3426
V\u3088
aV\u305d
aV\u3088
aV\u3088
aV\u305d
aV\u305d
aV\u3082
aV\u308f
aV\u3075
aV\u3042
aV\u305d
aV\u2026
asV\u30c3\u541b\u30bf
p3427
(lp3428
V\u30aa
asV\u3084\u3063\uff01
p3429
(lp3430
g790
ag790
ag790
asV\u3089\u306a\u3044
p3431
(lp3432
V\u3063
aV\u3051
aV\uff01
ag790
aV\u304b
aV\u3088
aV\uff01
ag790
ag790
aV\u65b9
aV\u3063
asV\u3060\u3053\u308c
p3433
(lp3434
V\u304b
asV\u306f\u3044\uff01
p3435
(lp3436
V\u3053
aV\u3053
asg47
(lp3437
g790
ag790
ag790
asV\u30c8\u306f\u30c0
p3438
(lp3439
V\u30c3
asV\u9854\u3057\u3061
p3440
(lp3441
V\u3083
asV\u3093\u3067\u30fc
p3442
(lp3443
V\uff01
aV\u3079
aV\u3079
asV\u30fc\u3082\u3046
p3444
(lp3445
V\uff01
aV\uff01
aV\uff01
asV\u3046\u4e8b\u3060
p3446
(lp3447
V\u304b
aV\u304b
aV\u304b
asV\u3044\u6b73\u3057
p3448
(lp3449
V\u3066
aV\u3066
asV\u4e2d\u306a\u306e
p3450
(lp3451
V\u3063
aV\u3063
asV\u306b\u3082\u3066
p3452
(lp3453
V\u306a
aV\u306a
asV\u9762\u76ee\u306b
p3454
(lp3455
V\u7b54
aV\u7b54
asV\u4f3c\u5408\u308f
p3456
(lp3457
V\u306a
asV\u3042\u308c\u3042
p3458
(lp3459
V\u308c
aV\u308c
asV\u2026\u2026\u30c0
p3460
(lp3461
V\u30e1
aV\u30e1
aV\u30e1
asV\u3044\u4e8b\u3057
p3462
(lp3463
V\u305f
aV\u305f
asV\u3066\u3082\u3057
p3464
(lp3465
V\u3087
aV\u3087
asV\u3046\u3093\u3046
p3466
(lp3467
V\u3093
aV\u3093
aV\u3093
aV\u3093
asV\u3044\u3057\u3055
p3468
(lp3469
g790
asV\u304c\u3068\u306b
p3470
(lp3471
V\u3043
asV\u301c\u3057\u3087
p3472
(lp3473
V\u3046
asV\u3075\u3045\uff5e
p3474
(lp3475
V\u3093
aV\u3063
aV\u3093
aV\u3063
asV\u3066\u6b32\u3057
p3476
(lp3477
V\u3044
aV\u3044
asV\u3066\u3082\u3046
p3478
(lp3479
V\uff01
asV\u5e74\u306e\u4e88
p3480
(lp3481
V\u5b9a
aV\u5b9a
asV\u3083\u30fc\u3093
p3482
(lp3483
V\u3001
asV\u30fc\u3001\u30c0
p3484
(lp3485
V\u30e1
asV\uff1f\u3048\u3063
p3486
(lp3487
V\uff01
asV\u304c\u3068\u3046
p3488
(lp3489
V\u304a
aV\uff01
aV\u304a
aV\uff01
aV\u306b
asV\u30eb\u30af\u306a
p3490
(lp3491
V\u3093
asV\u306b\u306a\u3093
p3492
(lp3493
V\u3068
asV\uff1f\u512a\u308c
p3494
(lp3495
V\u3066
asV\u3048\u3066\u305f
p3496
(lp3497
g790
asV\u3066\u3044\u308b
p3498
(lp3499
V\u3068
aV\u3068
aV\u3002
asV\u3066\u3082\u307f
p3500
(lp3501
V\u3083
aV\u3083
asV\u2026\u2026\u308f
p3502
(lp3503
V\u304b
asV\u3044\u4e8b\u3067
p3504
(lp3505
V\u3082
asV\u3044\u4e8b\u3060
p3506
(lp3507
V\u3063
asV\u675f\u3057\u3066
p3508
(lp3509
V\u308b
asV\u5e30\u3063\u3066
p3510
(lp3511
V\u304d
asV\u2026\u2026\u3082
p3512
(lp3513
V\u3046
asV\u610f\u5730\u60aa
p3514
(lp3515
V\uff01
aV\uff01
asV\u4eca\u5e74\u3082
p3516
(lp3517
V\u3088
aV\u3088
asV\u3081\u3067\u3068
p3518
(lp3519
V\u3046
aV\u3046
asV\u30c8\u3092\u30d7
p3520
(lp3521
V\u30ec
aV\u30ec
asV\u304c\u98df\u3079
p3522
(lp3523
V\u305f
asV\u306a\u3089\u3069
p3524
(lp3525
V\u3046
aV\u3046
asV\u308f\u304b\u3063
p3526
(lp3527
V\u3066
aV\u3066
aV\u3066
aV\u3066
aV\u3066
aV\u3066
aV\u305f
aV\u3066
aV\u3066
asV\u308c\u3067\uff1f
p3528
(lp3529
g790
ag790
ag790
ag790
asV\u30e1\uff01\u3084
p3530
(lp3531
V\u3063
aV\u3063
aV\u3063
asV\u3050\u3063\u3058
p3532
(lp3533
V\u3087
asV\u306e\u5b50\u3068
p3534
(lp3535
V\u4ef2
asV\u306e\u5b50\u306b
p3536
(lp3537
V\u3082
aV\u3082
asV\u2026\u2026\u4f55
p3538
(lp3539
V\u3057
aV\u3067
asV\u306e\u5b50\u3060
p3540
(lp3541
V\u3082
aV\u3082
asV\u30af\u30de\u3055
p3542
(lp3543
V\u3093
aV\u3093
aV\u3093
aV\u3093
asV\u306b\u5fc3\u914d
p3544
(lp3545
V\u3055
asV\u30fc\u5bdd\u308b
p3546
(lp3547
V\u304b
aV\u304b
asV\u3083\u30fc\u3082
p3548
(lp3549
V\u5927
aV\u5927
aV\u3044
asV\u3001\u3057\u3087
p3550
(lp3551
V\u3046
aV\u3046
aV\u3046
asV\u5b50\u3068\u4ef2
p3552
(lp3553
V\u826f
asV\u3083\u3093\u51b7
p3554
(lp3555
V\u305f
asV\u3066\u307e\u305b
p3556
(lp3557
V\uff5e
asV\u306e\u30fc\uff1f
p3558
(lp3559
g790
ag790
asV\u3088\u306d\uff5e
p3560
(lp3561
g790
ag790
aV\u2026
asV\u3083\u3042\u2026
p3562
(lp3563
V\u2026
aV\u2026
asV\u4f55\u304c\u98df
p3564
(lp3565
V\u3079
asV\uff5e\u306b\uff5e
p3566
(lp3567
g790
ag790
asV\u3083\u30422
p3568
(lp3569
V0
asV\u3068\u30a6\u30e1
p3570
(lp3571
V\u3061
aV\u3061
aV\u3061
asV\u3001\u5618\uff01
p3572
(lp3573
V\u305d
asV\u305d\u3001\u305d
p3574
(lp3575
V\u3093
aV\u3046
aV\u308c
aV\u3046
aV\u308c
asV\u3075\u308f\u301c
p3576
(lp3577
V\u3001
aV\u3001
aV\u3001
asV\u3093\u3066\u51fa
p3578
(lp3579
V\u306a
asV\u3089\u6b62\u3081
p3580
(lp3581
V\u3066
asV\u304220
p3582
(lp3583
V0
asV\u3001\u3073\u3063
p3584
(lp3585
V\u304f
aV\u304f
aV\u304f
asV\u3044\u306e\uff1f
p3586
(lp3587
g790
ag790
ag790
ag790
asV\u2026\u3067\u3082
p3588
(lp3589
V\u306a
asV\u3082\u898b\u3066
p3590
(lp3591
V\u306a
asV\u30c1\uff01\uff01
p3592
(lp3593
g790
asV\u3001\u59b9\u306b
p3594
(lp3595
V\u5fc3
asV\u306f\u304f\u3057
p3596
(lp3597
V\u3085
asV\u2026\u683c\u597d
p3598
(lp3599
V\u60aa
aV\u60aa
asV\u6f22\u3067\u6355
p3600
(lp3601
V\u307e
aV\u307e
aV\u307e
asV\u5a5a\u3057\u305f
p3602
(lp3603
V\u3088
asV\u30ec\u30bc\u30f3
p3604
(lp3605
V\u30c8
aV\u30c8
aV\u30c8
aV\u30c8
aV\u30c8
aV\u30c8
aV\u30c8
aV\u30c8
aV\u30c8
asV\u3044\u9854\u3057
p3606
(lp3607
V\u3061
asV\u307e\u306b\u306f
p3608
(lp3609
V\u826f
aV\u826f
asV\u3046\u3001\u5618
p3610
(lp3611
V\uff01
asV\u3093\u7537\u524d
p3612
(lp3613
V\uff5e
asV\u3054\u304f\u697d
p3614
(lp3615
V\u3057
aV\u3057
aV\u3057
asV\u3075\u3045\u2026
p3616
(lp3617
V\u2026
aV\u2026
aV\u2026
asV\u30e3\u30fc\u30cf
p3618
(lp3619
V\u30f3
asV\u3055\u3044\u99ac
p3620
(lp3621
V\u9e7f
asV\u3063\u3054\u304f
p3622
(lp3623
V\u697d
aV\u697d
aV\u9854
aV\u697d
asV\u3058\u30fc\u3063
p3624
(lp3625
V\u3068
asV\u3087\uff01\u5909
p3626
(lp3627
V\u8cea
asV\u3001\u3057\u307e
p3628
(lp3629
V\u3063
aV\u3063
aV\u3063
asV\u3063\u3068\u898b
p3630
(lp3631
V\u305b
aV\u305b
aV\u3061
asV\u3068\u601d\u3063
p3632
(lp3633
V\u305f
asV\u3070\u307b\u3093
p3634
(lp3635
V\u3068
asV\u3069\u304b\u306a
p3636
(lp3637
V\u3044
asV\u3001\u672c\u5f53
p3638
(lp3639
V\u306b
asV\u306f\u305d\u3093
p3640
(lp3641
V\u306a
aV\u306a
asV\u3001\u3061\u3087
p3642
(lp3643
V\u3063
aV\u3063
aV\u3063
aV\u3063
aV\u3063
aV\u3063
aV\u3063
asV\u3001\u3061\u3083
p3644
(lp3645
V\u3093
aV\u3093
aV\u3093
asV\u3068\u601d\u3046
p3646
(lp3647
V\u3088
asV\u306e\u8ca0\u3051
p3648
(lp3649
V\u3060
asV\u304b\u2026\u2026
p3650
(lp3651
V\u305d
aV\u305d
aV\u305d
asV\u308f\u304b\u3089
p3652
(lp3653
V\u306a
aV\u306a
asV\u308f\u304b\u308b
p3654
(lp3655
V\u3088
asV\u308f\u304b\u308a
p3656
(lp3657
V\u3067
aV\u3067
asV\u3068\u2026\u2026
p3658
(lp3659
g790
ag790
ag790
asV\u3082\u306a\u3044
p3660
(lp3661
g790
ag790
ag790
asV\u3082\u306a\u3041
p3662
(lp3663
V\u2026
asV\u3063\u305f\u2026
p3664
(lp3665
V\u2026
aV\u2026
aV\u2026
aV\u2026
asV\u3083\u3093\u3084
p3666
(lp3667
V\u3063
asV\u3093\u3068\u30fc
p3668
(lp3669
V\u306b
asV\u4eca\u306f\u305d
p3670
(lp3671
V\u3093
aV\u3093
asV\u3083\u3093\u3082
p3672
(lp3673
V\u30a6
aV\u305d
asV\u3088\u3002\u305d
p3674
(lp3675
V\u3093
asV\u2026\u3075\u3047
p3676
(lp3677
V\uff1f
aV\uff1f
asV\u2026\u3075\u3045
p3678
(lp3679
V\u3001
ag790
ag790
aV\u3001
asV\u3044\u3066\u3069
p3680
(lp3681
V\u3044
aV\u3044
aV\u3044
asV\u3044\u3066\u306a
p3682
(lp3683
V\u3093
asV\u3046\u3082\u306e
p3684
(lp3685
V\u306a
aV\u306a
aV\u306a
asV\u3046\u3058\u3083
p3686
(lp3687
V\u306a
aV\u306a
aV\u306a
aV\u306a
asV\u30fc\u3002\u307e
p3688
(lp3689
V\u3063
asV\u3044\u3066\u305f
p3690
(lp3691
V\u306e
asV\u5bfe\u805e\u304b
p3692
(lp3693
V\u306a
asV\u306b\u306f\u826f
p3694
(lp3695
V\u3044
aV\u3044
asV\uff5e\u3063\u3001
p3696
(lp3697
V\u305d
aV\u305d
aV\u305d
aV\u305d
asV\u3044\u3066\u304d
p3698
(lp3699
V\u3066
aV\u3066
asV\u305f\u304f\u7f8e
p3700
(lp3701
V\u4e5f
asV\u2026\u3075\u306b
p3702
(lp3703
V\u3085
aV\u3085
asV\u3044\u306a\u3044
p3704
(lp3705
V\u304b
asV\u3068\u304b\u3057
p3706
(lp3707
V\u305f
asV\u3063\uff01\u306b
p3708
(lp3709
V\u3043
aV\u3043
asV\u3093\u3068\u30a6
p3710
(lp3711
V\u30e1
aV\u30e1
asV\u3093\u3068\u30ab
p3712
(lp3713
V\u30c3
aV\u30c3
asV\u306e\u306b\u3043
p3714
(lp3715
V\u306b
aV\u306b
aV\u306b
aV\u306b
aV\u306b
aV\u306b
aV\u306b
aV\u306b
asV\u308c\u306f\u3044
p3716
(lp3717
V\u3044
asV\u8a00\u3046\u306d
p3718
(lp3719
V\uff5e
aV\uff5e
asV\u3063\uff01\u3057
p3720
(lp3721
V\u3001
aV\u3001
aV\u3001
asV\u767d\u3044\u3088
p3722
(lp3723
g790
asV\u4e5f\u3082\u8131
p3724
(lp3725
V\u3054
aV\u3054
asV\u3063\uff01\u304a
p3726
(lp3727
V\u5144
aV\u5144
aV\u3001
asV\u307e\u305f\uff5e
p3728
(lp3729
g790
ag790
asV\u3055\u3001\u5bd2
p3730
(lp3731
V\u3044
asV\u4eba\u3082\u51fa
p3732
(lp3733
V\u6765
aV\u6765
asV\u68ee\u5cf6\u5148
p3734
(lp3735
V\u8f29
aV\u8f29
aV\u8f29
asV\u306b\u304b\u3057
p3736
(lp3737
V\u3066
aV\u3066
aV\u3066
asV\u3083\u3093\u3001
p3738
(lp3739
V\u3044
aV\u3042
aV\u30b2
asV\u3083\u3093\u3002
p3740
(lp3741
V\u3044
aV\u3044
aV\u4eca
aV\u307e
aV\u3044
aV\u307e
asV\u308c\uff1f\u306a
p3742
(lp3743
V\u3093
asV\u3044\u308b\u3002
p3744
(lp3745
V\u8a00
asV\u4e5f\u3060\u3063
p3746
(lp3747
V\u3066
aV\u3066
asV\u3066\u2026\u2026
p3748
(lp3749
V\u305d
ag790
ag790
aV\u3042
aV\u3084
asV\u3093\u3068\u306a
p3750
(lp3751
V\u304f
aV\u304f
aV\u304f
asV\u3093\u3068\u306b
p3752
(lp3753
V\uff01
asV\u306a\u3089\u51fa
p3754
(lp3755
V\u308b
asV\u304f\u697d\u3057
p3756
(lp3757
V\u3044
aV\u3044
aV\u3044
asV\uff01\u304a\u5144
p3758
(lp3759
V\u3061
aV\u3061
aV\u3061
aV\u3061
aV\u3061
asV\u904a\u3073\u306b
p3760
(lp3761
V\u6765
aV\u6765
asV\u30fc\u3002\u30d7
p3762
(lp3763
V\u30ec
aV\u30ec
aV\u30ec
asV\u307f\u3060\u306d
p3764
(lp3765
V\uff5e
asV\u3083\u3093\u304c
p3766
(lp3767
V\u5fc3
aV\u3044
aV\u81ea
aV\u90aa
asV\u3083\u3093\u304b
p3768
(lp3769
g790
ag790
asV\u304b\u3082\u306d
p3770
(lp3771
V\uff01
aV\u3047
asV\u3068\u30fc\u3002
p3772
(lp3773
V\u30d7
aV\u30d7
aV\u30d7
asV\u6c7a\u307e\u3063
p3774
(lp3775
V\u305f
aV\u305f
asV\u3067\u3001\u7f8e
p3776
(lp3777
V\u4e5f
aV\u4e5f
asV\u3083\u3093\u305f
p3778
(lp3779
V\u307e
aV\u307e
asV\u4f55\u2026\u2026
p3780
(lp3781
V\u5909
asV\u4e0b\u3055\u3044
p3782
(lp3783
g790
ag790
ag790
asV\u305f\u3044\u4f55
p3784
(lp3785
V\u3057
asV\u3055\u304b\u3001
p3786
(lp3787
V\u305d
aV\u305d
asV\u3083\u3093\u306f
p3788
(lp3789
V\u3001
aV\u30b9
asV\u3083\u3093\u306e
p3790
(lp3791
V\u3051
aV\u80f8
aV\u53cd
aV\u53cd
asg420
(lp3792
g790
asV\u3083\u3093\u3068
p3793
(lp3794
V\u300e
aV\u30ab
aV\u7d04
aV\u30a6
aV\u30a6
aV\u30ab
aV\u8a71
asV\u3083\u3093\u306b
p3795
(lp3796
V\u4f1a
aV\u4f55
asV\u3083\u3093\u306a
p3797
(lp3798
V\u3089
aV\u3089
aV\u3089
asV\u3083\u3093\u3067
p3799
(lp3800
V\u30fc
aV\u30fc
asV\u3083\u3093\u3061
p3801
(lp3802
V\u3087
asV\u3083\u3093\u3063
p3803
(lp3804
V\u3066
aV\u3066
aV\u3066
asV\u3053\u3089\u30fc
p3805
(lp3806
V\uff01
aV\uff01
aV\uff01
asV\u2026\u30c0\u30e1
p3807
(lp3808
V\u2026
aV\u2026
aV\u2026
asV\u5973\u306e\u5b50
p3809
(lp3810
V\u306b
aV\u3068
aV\u3060
aV\u306b
aV\u3060
asV\u3044\u308b\u306e
p3811
(lp3812
g790
ag790
aV\uff1f
asV\u6557\u3002\u306b
p3813
(lp3814
V\u3057
aV\u3057
asV\u3044\u308b\u3068
p3815
(lp3816
V\u3001
aV\u3001
asV\u3088\u305d\u308c
p3817
(lp3818
V\u30fc
asV\u3082\u3044\u3044
p3819
(lp3820
V\u3057
asV\u3059\u307f\u301c
p3821
(lp3822
g790
ag790
ag790
ag790
ag790
ag790
ag790
ag790
ag790
ag790
ag790
ag790
ag790
ag790
ag790
ag790
ag790
ag790
ag790
ag790
ag790
ag790
asV\u8a71\u3063\u3066
p3823
(lp3824
V\u4f55
asV\u3066\u3069\u3044
p3825
(lp3826
V\u3066
aV\u3066
aV\u3066
asV\u6557\u3058\u3083
p3827
(lp3828
V\u3093
asV\u3088\u305d\u3093
p3829
(lp3830
V\u306a
asV\u30c0\u30e1\u3002
p3831
(lp3832
V\u4eca
aV\u4eca
asV\uff5e\u3002\u77ed
p3833
(lp3834
V\u3059
asV\u2026\u306f\u301c
p3835
(lp3836
V\u3044
asV\u683c\u597d\u60aa
p3837
(lp3838
V\u3044
aV\u3044
asV\u8a00\u3044\u51fa
p3839
(lp3840
V\u3057
asV\uff5e\u3093\u3060
p3841
(lp3842
V\u9a5a
asV\u3044\u732b\u304c
p3843
(lp3844
V\u6765
aV\u6765
asV\u30c0\u30e1\u3060
p3845
(lp3846
V\u3088
asV\u30fc\uff01\u305f
p3847
(lp3848
V\u3053
asV\u30d3\u30b9\u30b5
p3849
(lp3850
V\u30fc
aV\u30fc
asV\u3057\u3066\u2026
p3851
(lp3852
V\u2026
aV\u2026
asV\u30c0\u30e1\u306a
p3853
(lp3854
V\u3093
aV\u306e
aV\u7269
aV\u3093
aV\u306e
asV\u3063\u3001\u5f8c
p3855
(lp3856
V\u3067
asV\u3002\u3042\u3001
p3857
(lp3858
V\u7d17
asV\u3063\u3001\u306a
p3859
(lp3860
V\u3093
aV\u3093
asV\u3063\u3001\u3069
p3861
(lp3862
V\u3001
aV\u3001
asV\u3089\u3069\u3046
p3863
(lp3864
V\u3059
aV\u3059
asV\u3063\u3068\u30af
p3865
(lp3866
V\u30de
aV\u30de
asV\uff5e\u3093\u3001
p3867
(lp3868
V\u305d
aV\u305d
aV\u305d
aV\u305d
aV\u3057
aV\u305d
aV\u305d
asV\uff01\u3075\u30fc
p3869
(lp3870
V\u3093
aV\u3093
asV\u3063\u3066\u8ab0
p3871
(lp3872
V\uff1f
aV\uff1f
asV\u2026\u2026\u4ed6
p3873
(lp3874
V\u306b
aV\u306b
asV\u3088\uff01\u306b
p3875
(lp3876
V\u3043
asV\u3063\u3001\u305d
p3877
(lp3878
V\u3063
aV\u3046
aV\u3046
aV\u3046
aV\u3046
asV\u51b7\u305f\u3044
p3879
(lp3880
g790
asV\u30c0\u30e1\u304b
p3881
(lp3882
V\u306a
aV\u306a
asV\u3082\u30fc\u3001
p3883
(lp3884
V\u304a
asV\u30a3\u30fc\u30c8
p3885
(lp3886
V\u30d9
asV\u3059\u307f\u306a
p3887
(lp3888
V\u3055
aV\u3055
aV\u3055
aV\u3055
aV\u3055
aV\u3055
aV\u3055
aV\u3055
aV\u3055
aV\u3055
aV\u3055
aV\u3055
aV\u3055
aV\u3055
aV\u3055
aV\u3055
aV\u3055
aV\u3055
asV\u30fc\uff01\u306a
p3889
(lp3890
V\u3093
aV\u3093
aV\u3093
asV\u30fc\uff01\u306b
p3891
(lp3892
V\u3043
asV\u3088\uff01\u3075
p3893
(lp3894
V\u30fc
aV\u30fc
asV\u3044\u306d\uff5e
p3895
(lp3896
g790
asV\u3063\u3001\u3044
p3897
(lp3898
V\u3084
asV\u53ef\u611b\u3044
p3899
(lp3900
V\u306a
aV\u3067
asV\u3075\u304b\u3075
p3901
(lp3902
V\u304b
aV\u304b
asV\u3046\u3067\u3057
p3903
(lp3904
V\u3087
asV\u304f\u306d\uff01
p3905
(lp3906
V\u306b
aV\u306b
aV\u306b
asV\u53ef\u611b\u304f
p3907
(lp3908
V\u306a
aV\u306a
aV\u306a
asV\u3093\u304c\u3044
p3909
(lp3910
V\u308b
asV\u30fc\uff01\u3084
p3911
(lp3912
V\u308d
aV\u308d
asV\u3066\u5f7c\u5973
p3913
(lp3914
V\u306e
aV\u306e
asV\u3088\uff01\u3093
p3915
(lp3916
V\u3082
aV\u3082
asV\u30fc\uff01\u3082
p3917
(lp3918
V\u3046
asV\u3075\u304b\u3060
p3919
(lp3920
V\u306d
asV\u80f8\u3001\u3058
p3921
(lp3922
V\u30fc
asV\u3044\u3042\u308a
p3923
(lp3924
V\u304c
asV\u30e1\u3061\u3083
p3925
(lp3926
V\u3093
aV\u3093
aV\u3093
aV\u3093
asV\u3001\u3060\u3001
p3927
(lp3928
V\u5927
asV\uff01\u306b\u3057
p3929
(lp3930
V\u3057
aV\u3057
aV\u3057
aV\u3057
asV\u3042\u3063\uff01
p3931
(lp3932
V\u3057
aV\u3057
aV\u304a
aV\u3057
asV\u3066\u304a\u5144
p3933
(lp3934
V\u3061
aV\u3061
asV\u8a71\u306f\u3044
p3935
(lp3936
V\u3044
asV\u3044\u306a\u3002
p3937
(lp3938
V\u3069
aV\u3069
asV\u3093\u304c\u81ea
p3939
(lp3940
V\u5206
asV\uff01\u306b\u3043
p3941
(lp3942
V\u306b
aV\u306b
aV\u306b
aV\u306b
aV\u306b
aV\u306b
aV\u306b
aV\u306b
aV\u306b
aV\u306b
asV\u3068\u3001\u4f55
p3943
(lp3944
V\u3092
aV\u3092
aV\u3092
asV\u3067\u4ed6\u306e
p3945
(lp3946
V\u304a
asV\u3002\u3042\u308a
p3947
(lp3948
V\u304c
asV\u3001\u3060\u306d
p3949
(lp3950
g790
asV\u3087\u3063\u3068
p3951
(lp3952
V\u306f
aV\u5f85
aV\u2026
aV\u3044
aV\u3044
aV\u898b
aV\u3044
aV\u30af
aV\u30af
aV\u898b
aV\u3044
asV\u3082\u3044\u308b
p3953
(lp3954
V\u3057
aV\uff01
asV\u3093\u306f\u7f8e
p3955
(lp3956
V\u4e5f
asV\u3044\u65b9\u304c
p3957
(lp3958
V\u3044
asV\u304f\u306a\u3044
p3959
(lp3960
V\u304b
aV\u304b
aV\u3057
asV\u571f\u7523\u306f
p3961
(lp3962
V\u306a
asV\u2026\u5909\u306a
p3963
(lp3964
V\u30dd
asV\u30c0\u30e1\u30fc
p3965
(lp3966
V\uff01
asV\u3083\u30fc\uff01
p3967
(lp3968
g790
ag790
asV\u5fdc\u3002\u3064
p3969
(lp3970
V\u307e
aV\u307e
asV\u30c0\u30e1\u30c0
p3971
(lp3972
V\u30e1
aV\u30e1
aV\u30e1
aV\u30e1
aV\u30e1
aV\u30e1
aV\u30e1
aV\u30e1
asV\u3081\u3066\u304a
p3973
(lp3974
V\u304f
asV\u3063\u3066\u8a00
p3975
(lp3976
V\u3063
asV\u306b\u4f1a\u3063
p3977
(lp3978
V\u305f
asV\u3069\u2026\u2026
p3979
(lp3980
g790
ag790
aV\u5927
asV\u3044\u65b9\u306f
p3981
(lp3982
V\u7121
aV\u7121
asV\u304f\u306a\u3063
p3983
(lp3984
V\u305f
asV\u3092\u5927\u4e8b
p3985
(lp3986
V\u306b
aV\u306b
asV\u3082\u30fc\u3093
p3987
(lp3988
g790
ag790
ag790
asV\u3070\u3044\u3044
p3989
(lp3990
V\u3058
asV\u3002\u3069\u308c
p3991
(lp3992
V\uff1f
aV\uff1f
asV\u3057\u3066\u3001
p3993
(lp3994
V\u4f55
asV\u6700\u8fd1\u5b66
p3995
(lp3996
V\u6821
asV\u3046\u304b\u3082
p3997
(lp3998
g790
asV\u3048\u30fc\u3063
p3999
(lp4000
V\u3068
aV\u3068
aV\u3068
aV\u3068
aV\u3068
asV\u304c\u60aa\u3044
p4001
(lp4002
V\u3051
aV\u306a
asV\u3001\u3044\u3044
p4003
(lp4004
V\u6b73
aV\u3088
aV\u3088
aV\u3088
aV\u6b73
aV\u8a71
asV\u3075\u3047\uff1f
p4005
(lp4006
V\u7f8e
ag790
ag790
aV\u305d
aV\u2026
aV\u3069
ag790
aV\u305d
aV\u7f8e
asV\u306a\u30dd\u30fc
p4007
(lp4008
V\u30ba
asV\u3063\u3066\u306a
p4009
(lp4010
V\u3044
asV\u3093\u304b\u7f8e
p4011
(lp4012
V\u5473
aV\u5473
asV\uff01\u3059\u3050
p4013
(lp4014
V\u306b
aV\u8131
asV\u75f4\u6f22\u3067
p4015
(lp4016
V\u6355
aV\u6355
aV\u6355
asV\uff01\u7d17\u6c5f
p4017
(lp4018
V\u3061
asV\u306b\u4f55\u3055
p4019
(lp4020
V\u305b
aV\u305b
asV\u3057\u3083\u30fc
p4021
(lp4022
V\u3044
aV\u3044
aV\u3044
asV\u306a\uff5e\u3093
p4023
(lp4024
V\u3060
asV\u306b\u4f55\u304b
p4025
(lp4026
V\u7528
aV\u3057
aV\u7528
asV\u3001\u3044\u3063
p4027
(lp4028
V\u3066
aV\u305f
aV\u305f
aV\u305f
asV\u30fc\u3060\u3088
p4029
(lp4030
V\uff01
asV\u8cea\u8005\u304b
p4031
(lp4032
V\u3068
asV\u3082\u3046\u301c
p4033
(lp4034
V\u3057
asV\u306b\u304a\u571f
p4035
(lp4036
V\u7523
asV\u7f6e\u3044\u3068
p4037
(lp4038
V\u3044
aV\u3044
aV\u3051
asV\u3087\u30fc\u30fc
p4039
(lp4040
V\uff01
aV\uff01
asV\u3044\u3067\u3088
p4041
(lp4042
g790
aV\u306d
ag790
asV\u30a4\u30d0\u30fc
p4043
(lp4044
V\u30a4
asV\u306b\u3001\u6700
p4045
(lp4046
V\u8fd1
aV\u8fd1
asV\u3002\u3044\u3064
p4047
(lp4048
V\u304b
aV\u304b
aV\u304b
asV\u30fc\u3044\u3044
p4049
(lp4050
V\u306a
asV\u3063\u3057\u3063
p4051
(lp4052
V\u3057
aV\u3057
aV\u3057
asV\u3080\u3080\u3063
p4053
(lp4054
V\uff01
aV\u3001
aV\uff01
aV\u3001
asV\u306a\u3001\u6ce3
p4055
(lp4056
V\u3044
asV\u3051\u3061\u3093
p4057
(lp4058
V\u307c
asV\u3046\u3059\u308b
p4059
(lp4060
V\uff1f
aV\uff1f
asV\u308b\u3002\u8a00
p4061
(lp4062
V\u3046
asV\u8005\u304b\u3068
p4063
(lp4064
V\u601d
asV\u3042\u3042\u3063
p4065
(lp4066
V\uff01
aV\uff01
aV\uff01
asV\u3048\u30fc\u3001
p4067
(lp4068
V\u30c0
asV\u3063\u304b\u308a
p4069
(lp4070
V\u3057
aV\u3057
asV\u30fc\u3044\u3063
p4071
(lp4072
g790
asV\u306e\uff01\u3053
p4073
(lp4074
V\u305d
asV\u308c\uff5e\uff1f
p4075
(lp4076
V\u305d
aV\u305d
asV\u3089\u3057\uff5e
p4077
(lp4078
g790
asV\u304c\u5fc3\u914d
p4079
(lp4080
V\u3057
asV\u4eca\u5ea6\u7d17
p4081
(lp4082
V\u6c5f
asV\u3080\u3080\u3080
p4083
(lp4084
V\u2026
aV\u2026
asV\u3002\u65e9\u304f
p4085
(lp4086
V\u65e9
aV\u65e9
asV\u3060\u30fc\uff1f
p4087
(lp4088
g790
asV\u3046\u304b\u3001
p4089
(lp4090
V\u304a
asV\u3063\u304b\u306a
p4091
(lp4092
V\u2026
aV\u3041
asV\u305d\u3046\u3060
p4093
(lp4094
V\u3088
aV\u304a
aV\u304b
aV\u3088
aV\u3088
aV\u3088
aV\u3088
aV\u3088
aV\u3088
aV\u3088
aV\u304b
aV\u3088
aV\u3088
aV\u304b
asV\u3067\u3044\u3044
p4095
(lp4096
V\u3088
aV\u3088
asV\u3048\u30fc\u30fc
p4097
(lp4098
V\u30fc
aV\u30fc
aV\u30fc
aV\u30fc
asV\u3057\u3083\u3044
p4099
(lp4100
V\uff01
asV\u3044\u5206\u304b
p4101
(lp4102
V\u308b
aV\u308b
asV\u305d\u3046\u3068
p4103
(lp4104
V\u3082
asV\u305d\u3046\u306a
p4105
(lp4106
V\u3093
aV\u308b
aV\u3093
aV\u3093
aV\u3093
aV\u3093
aV\u3093
aV\u3093
aV\u3093
aV\u3093
aV\u3093
aV\u3093
aV\u3093
aV\u3093
aV\u306e
aV\u3093
asV\u3001\u53ef\u611b
p4107
(lp4108
V\u3044
asV\u6016\u3044\u9854
p4109
(lp4110
V\u3057
asV\u3055\u305b\u305f
p4111
(lp4112
V\u3044
aV\u3044
asV\u3043\u306b\uff01
p4113
(lp4114
g790
ag790
aV\uff01
aV\u3067
ag790
ag790
ag790
ag790
ag790
ag790
ag790
ag790
aV\uff01
aV\u6d41
asV\u3048\u308b\u304b
p4115
(lp4116
V\u3082
asV\u592b\u3060\u3088
p4117
(lp4118
V\uff01
aV\uff01
aV\u3002
aV\uff01
aV\uff01
asV\u3063\u304b\u304f
p4119
(lp4120
V\u3060
asV\u3093\uff01\u3044
p4121
(lp4122
V\u3044
aV\u3044
aV\u3063
asV\u305d\u3046\u3044
p4123
(lp4124
V\u3046
aV\u3046
aV\u3046
aV\u3046
aV\u3046
aV\u3046
aV\u3046
asV\u306e\u6bcd\u3061
p4125
(lp4126
V\u3083
aV\u3083
asV\u3044\u3084\u3063
p4127
(lp4128
V\uff01
aV\uff01
aV\uff01
asV\u3063\u3057\u3083
p4129
(lp4130
V\u3044
aV\u30fc
asV\u305d\u3046\u304b
p4131
(lp4132
V\u3082
aV\u306a
aV\u306a
aV\u306a
aV\u306a
aV\u306a
asV\u304b\u7f8e\u5473
p4133
(lp4134
V\u3057
aV\u3057
asV\u3063\u3057\u3087
p4135
(lp4136
V\u30fc
aV\u30fc
aV\u30fc
aV\uff5e
asV\u3047\uff1f\u305d
p4137
(lp4138
V\u3046
aV\u3093
asV\u306b\u3058\u3083
p4139
(lp4140
V\u306a
asV\u3063\u3057\u30fc
p4141
(lp4142
g790
ag790
ag790
asV\u3084\u3041\u3063
p4143
(lp4144
V\uff01
asV\u306a\uff5e\u306b
p4145
(lp4146
V\uff5e
aV\uff5e
asV\u3044\u3068\u2026
p4147
(lp4148
V\u2026
asV\u3002\u306b\u3063
p4149
(lp4150
V\u3057
aV\u3057
aV\u3057
asV\u3044\u3063\uff01
p4151
(lp4152
g790
ag790
ag790
ag790
asV\u3001\u3044\u3084
p4153
(lp4154
V\u3041
asV\u3063\u3066\u304d
p4155
(lp4156
V\u3066
asV\u3083\uff5e\uff5e
p4157
(lp4158
V\u3063
asV\u4eba\u3067\u3044
p4159
(lp4160
V\u308b
asV\u3046\u304b\u3057
p4161
(lp4162
V\u305f
aV\u305f
aV\u305f
aV\u305f
asV\u3046\u304b\u306a
p4163
(lp4164
V\u3041
aV\u3041
aV\u3041
aV\u3041
aV\u3041
asV\u6355\u307e\u3063
p4165
(lp4166
V\u3061
aV\u3061
aV\u3061
asV\u306d\u3047\u2026
p4167
(lp4168
V\u2026
asV\u308d\u3084\u308d
p4169
(lp4170
V\u3063
aV\u3063
asV\u3044\u3068\u601d
p4171
(lp4172
V\u3046
asV\u3047\uff1f\u3069
p4173
(lp4174
V\u3046
asV\u3092\u3084\u3063
p4175
(lp4176
V\u3066
asV\u5206\u3067\u3084
p4177
(lp4178
V\u308c
asV\u3043\u306b\uff5e
p4179
(lp4180
V\u3002
asV\u9e7f\u30fc\u30fc
p4181
(lp4182
V\u30fc
aV\u30fc
aV\u30fc
aV\u30fc
aV\u30fc
aV\u30fc
asV\u3063\u3066\u3044
p4183
(lp4184
V\u308b
aV\u3046
aV\u3044
asV\u306e\u6669\u3054
p4185
(lp4186
V\u98ef
asV\u304b\u3093\u306a
p4187
(lp4188
V\u3044
asV\u304f\u65e9\u304f
p4189
(lp4190
V\uff01
aV\uff01
asV\u30c1\u30a8\u30c3
p4191
(lp4192
V\u30c1
aV\u30c1
asV\u3069\u3001\u3069
p4193
(lp4194
V\u3053
aV\u3046
aV\u3046
aV\u3046
aV\u3046
aV\u3046
aV\u3053
aV\u3046
aV\u3046
aV\u3046
asV\u3063\u3066\u3042
p4195
(lp4196
V\u308b
asV\u30fc\uff1f\u7f8e
p4197
(lp4198
V\u4e5f
aV\u4e5f
aV\u4e5f
asV\u3069\u3001\u3060
p4199
(lp4200
V\u306d
asV\u30e1\u304b\u306a
p4201
(lp4202
g790
ag790
asV\u3057\u306a\u304d
p4203
(lp4204
V\u3083
asV\u305d\u306e\u8a71
p4205
(lp4206
V\u306f
aV\u306f
asV\u3057\u3002\u30b5
p4207
(lp4208
V\u30fc
aV\u30fc
asV\uff1f\u304a\u3063
p4209
(lp4210
V\u3071
aV\u3071
asV\u3069\u3001\u304a
p4211
(lp4212
V\u5144
asV\u3093\u3060\u2026
p4213
(lp4214
V\u2026
aV\u2026
aV\u2026
aV\u2026
asV\u3063\u3066\u305d
p4215
(lp4216
V\u3046
asV\uff01\u5f85\u3066
p4217
(lp4218
V\u99ac
aV\u99ac
aV\u99ac
asV\u2026\u4f55\u3067
p4219
(lp4220
V\uff1f
asV\u3066\u308b\u3088
p4221
(lp4222
V\u306d
aV\uff01
asV\u3070\u30fc\u3044
p4223
(lp4224
g790
ag790
asV\u3068\u8a71\u805e
p4225
(lp4226
V\u3044
asV\u306b\u3001\u4eca
p4227
(lp4228
V\u5e74
aV\u5e74
asV\u2026\u672c\u5f53
p4229
(lp4230
V\u3060
asV\u3058\u3060\u306d
p4231
(lp4232
g790
ag790
ag790
asV\u307f\u3001\u7f8e
p4233
(lp4234
V\u4e5f
aV\u4e5f
asV\u3067\u3088\u306d
p4235
(lp4236
g790
asV\u77e5\u3089\u306a
p4237
(lp4238
V\u3044
aV\u3044
aV\u3044
aV\u3044
aV\u3044
aV\u3044
aV\u3044
aV\u3044
aV\u3044
asV\u30d9\u30a4\u30d3
p4239
(lp4240
V\u30fc
asV\u3063\u3066\u3055
p4241
(lp4242
g790
asV\u306b\u306f\u672c
p4243
(lp4244
V\u5f53
asV\u3066\u308b\u308f
p4245
(lp4246
V\u304b
aV\u304b
asV\u304b\u3060\u306d
p4247
(lp4248
V\u30fc
asV\u3044\u307e\u30fc
p4249
(lp4250
V\uff01
asV\u307c\uff01\u77e5
p4251
(lp4252
V\u3089
asV\u3063\u307d\u3044
p4253
(lp4254
V\u3053
asV\u3044\u3051\u3069
p4255
(lp4256
V\u3001
aV\u2026
asV\u8f29\uff01\u3053
p4257
(lp4258
V\u306e
aV\u306e
aV\u306e
asV\u3089\u306d\uff5e
p4259
(lp4260
V\u3063
asV\u306b\u306e\u610f
p4261
(lp4262
V\u5730
aV\u5730
asV\u4e8b\u8a00\u3063
p4263
(lp4264
V\u3066
aV\u3066
asV\u307e\u3055\u304b
p4265
(lp4266
V\u3001
aV\u3001
asV\u3067\u3059\uff01
p4267
(lp4268
V\uff01
aV\uff01
asV\u304b\u305b\u306a
p4269
(lp4270
V\u3044
asV\u3044\u8a71\u3063
p4271
(lp4272
V\u3066
asV\u4f55\u3067\uff1f
p4273
(lp4274
g790
asV\u306d\uff5e\u2026
p4275
(lp4276
V\u2026
asV\u3093\u3001\u5e73
p4277
(lp4278
V\u6c17
asV\u3093\uff01\u3084
p4279
(lp4280
V\u308d
aV\u308d
asV\u304b\u75f4\u6f22
p4281
(lp4282
V\u3067
aV\u3067
aV\u3067
asV\u304f\u3066\uff01
p4283
(lp4284
V\u7740
aV\u7740
asV\u4e8b\u8a00\u3046
p4285
(lp4286
V\u306d
aV\u306d
asV\u3082\u3057\u3087
p4287
(lp4288
V\u3046
aV\u3046
asV\u3067\u3088\u308d
p4289
(lp4290
V\u3057
aV\u3057
asV\u3083\u3093\u7537
p4291
(lp4292
V\u524d
asV\u306a\u3041\u3002
p4293
(lp4294
V\u307e
aV\u307e
asV\u306a\u3041\u3001
p4295
(lp4296
V\u306b
asV\u306a\u3044\u65b9
p4297
(lp4298
V\u304c
asV\uff01\u9854\u304c
p4299
(lp4300
V\u30b9
aV\u30b9
asV\u3063\u3001\u56f0
p4301
(lp4302
V\u3063
aV\u3063
asV\u3001\u56f0\u3063
p4303
(lp4304
V\u305f
aV\u305f
asV\uff1f\u2026\u2026
p4305
(lp4306
V\u4f55
asV\u306f\u6c7a\u307e
p4307
(lp4308
V\u3063
aV\u3063
asV\u30c3\u30c1\uff01
p4309
(lp4310
V\uff01
asV\u81ea\u4fe1\u3082
p4311
(lp4312
V\u3063
aV\u3063
asV\u304f\u53ef\u611b
p4313
(lp4314
V\u304f
aV\u304f
aV\u304f
asV\u3068\u307f\u3083
p4315
(lp4316
V\u30fc
aV\u30fc
asV\u306a\u3041\u304a
p4317
(lp4318
V\u5144
aV\u5144
asV\u8997\u3044\u3061
p4319
(lp4320
V\u3083
asV\u30fc\uff01\u96e2
p4321
(lp4322
V\u305b
aV\u305b
aV\u305b
asV\u3001\u5931\u6557
p4323
(lp4324
V\u5931
aV\u5931
asV\uff5e\u3002\u30ce
p4325
(lp4326
V\u30ea
asV\u4ecb\u3057\u306a
p4327
(lp4328
V\u304d
asV\u5b50\u306b\u3082
p4329
(lp4330
V\u3066
aV\u3066
asV\u3087\uff01\u306a
p4331
(lp4332
V\u3093
asV\u3089\u3044\u304a
p4333
(lp4334
V\u5144
asV\u3081\u3093\u306a
p4335
(lp4336
V\u3055
asV\u305f\u3089\u3061
p4337
(lp4338
V\u3083
asV\u3059\u3044\u305f
p4339
(lp4340
V\u3002
aV\u3002
asV\u308f\u3063\uff01
p4341
(lp4342
V\uff1f
asV\u3054\u3044\u3001
p4343
(lp4344
V\u3061
aV\u3061
asV\u306d\u3063\u3002
p4345
(lp4346
V\u306b
aV\u306b
aV\u306b
asV\u3053\u3068\uff1f
p4347
(lp4348
g790
asV\u306a\u306b\u3088
p4349
(lp4350
V\u305d
aV\u30fc
aV\u3002
aV\u30fc
aV\u30fc
asV\u307e\u3042\u6c17
p4351
(lp4352
V\u6301
aV\u6301
asV\u30fc\u30ba\u3057
p4353
(lp4354
V\u3066
asV\u306a\u306b\u30fc
p4355
(lp4356
V\uff1f
aV\uff1f
aV\uff1f
asV\u3001\u3082\u3046
p4357
(lp4358
V\u52dd
asV\uff5e\u3002\u3082
p4359
(lp4360
V\u3046
asV\u4f55\u3092\u2026
p4361
(lp4362
V\u2026
aV\u2026
aV\u2026
asV\u30de\u3057\u306a
p4363
(lp4364
V\u3044
asV\u3063\u3058\u3083
p4365
(lp4366
V\u30fc
asV\u30fc\u3045\uff01
p4367
(lp4368
g790
asV\u3063\u3058\u3087
p4369
(lp4370
V\u3076
asV\u3061\u308d\u3093
p4371
(lp4372
V\u3060
asV\u3063\uff01\uff01
p4373
(lp4374
V\uff01
aV\uff01
ag790
aV\u30c0
aV\uff01
aV\uff01
ag790
asV\u3060\u3001\u30c0
p4375
(lp4376
V\u30e1
aV\u30e1
aV\u30e1
asV\u4e5f\u3001\u7d76
p4377
(lp4378
V\u5bfe
asV\u301c\u306b\u301c
p4379
(lp4380
g790
asV\u65e9\u304f\u51fa
p4381
(lp4382
V\u3066
asV\u306f\u30c0\u30c3
p4383
(lp4384
V\u30d5
asV\u3054\u3044\u3059
p4385
(lp4386
V\u3054
aV\u3054
asV\u306a\u304f\u3066
p4387
(lp4388
V\u3055
aV\uff01
aV\uff01
aV\u3055
ag790
aV\u3055
asV\u30fc\u3061\u3087
p4389
(lp4390
V\u3063
aV\u3063
asV\u3044\u3067\u3057
p4391
(lp4392
V\u3087
aV\u3087
aV\u3087
aV\u3087
asV\u5bc4\u308a\u9053
p4393
(lp4394
V\u3057
aV\u3057
asV\u3044\u3044\u611f
p4395
(lp4396
V\u3058
aV\u3058
aV\u3058
asV\u304a\u3063\u3071
p4397
(lp4398
V\u3044
aV\u3044
asV\u30fc\u3063\uff01
p4399
(lp4400
V\uff01
ag790
aV\uff01
ag790
aV\uff01
aV\uff01
ag790
ag790
asV\u307b\u3069\u3001
p4401
(lp4402
V\u3060
asV\u308a\u4e8c\u4eba
p4403
(lp4404
V\u3067
aV\u3067
asV\u3044\u4e8b\u8a00
p4405
(lp4406
V\u3046
aV\u3046
asV\uff1f\u3069\u3046
p4407
(lp4408
V\u3057
aV\u3057
aV\u3057
aV\u304b
aV\u3057
asV\u304a\u3063\u306f
p4409
(lp4410
V\u3088
aV\u3088
aV\u3088
aV\u3088
aV\u3088
aV\u3088
aV\u3088
aV\u3088
aV\u3088
aV\u3088
aV\u3088
aV\u3088
aV\u3088
aV\u3088
aV\u3088
aV\u3088
aV\u3088
aV\u3088
aV\u3088
aV\u3088
aV\u3088
aV\u3088
aV\u3088
aV\u3088
aV\u3088
asV\u3044\u3084\u3041
p4411
(lp4412
V\u3063
asV\u60aa\u3044\u4e8b
p4413
(lp4414
V\u3057
aV\u3057
asV\u306a\u306b\u301c
p4415
(lp4416
V\uff1f
asV\uff5e\u3001\u5931
p4417
(lp4418
V\u6557
aV\u6557
asV\u3066\u99ac\u9e7f
p4419
(lp4420
V\u306b
aV\u306b
aV\u306b
asV\u3067\u2026\u2026
p4421
(lp4422
V\u683c
aV\u683c
asV\u304c\u6765\u306a
p4423
(lp4424
V\u304b
aV\u304b
asV\u2026\u3057\u3087
p4425
(lp4426
V\u3046
asV\u3002\u30c0\u30e1
p4427
(lp4428
V\uff5e
aV\uff5e
asV\u308b\u5834\u5408
p4429
(lp4430
V\u3058
aV\u3058
asV\u3089\u30fc\uff01
p4431
(lp4432
V\u96e2
aV\u96e2
aV\u96e2
asV\u76ee\u306b\u7b54
p4433
(lp4434
V\u3048
aV\u3048
asV\u306b\u3001\u771f
p4435
(lp4436
V\u9762
aV\u9762
asV\u5f85\u3066\u307e
p4437
(lp4438
V\u305b
asV\u3044\uff01\u65e9
p4439
(lp4440
V\u304f
asV000
p4441
(lp4442
V\u4e07
asV\u30ba\u3057\u3066
p4443
(lp4444
V\u2026
asV\u306a\u306b\u306a
p4445
(lp4446
V\u306b
aV\u306b
aV\u306b
aV\u306b
asV\u3066\u304a\u304f
p4447
(lp4448
g790
asV\u3059\uff01\uff01
p4449
(lp4450
g790
ag790
asV\uff1f\u3069\u3001
p4451
(lp4452
V\u3069
aV\u3069
asV\u30a2\u2026\u2026
p4453
(lp4454
V\u30c0
aV\u30c0
aV\u30c0
asV\u3064\u307e\u3093
p4455
(lp4456
V\u306a
aV\u306a
asV\u5225\u306b\u2026
p4457
(lp4458
V\u2026
aV\u2026
asV\u3060\u3001\u304a
p4459
(lp4460
V\u5144
aV\u5144
asV\u306a\u306b\u3057
p4461
(lp4462
V\u3066
aV\u3066
aV\u3066
asV\u30c8\u30fc\uff1f
p4463
(lp4464
g790
ag790
ag790
asV\u305d\u3046\u3058
p4465
(lp4466
V\u3083
aV\u3083
aV\u3083
aV\u3083
asV\u304f\u7f8e\u4e5f
p4467
(lp4468
V\u306f
asV\u2026\u884c\u304f
p4469
(lp4470
V\u308f
asV\u306a\u306b\u304b
p4471
(lp4472
V\u3044
asV\u3051\u307e\u305b
p4473
(lp4474
V\uff5e
asV\u305f\u3053\u3055
p4475
(lp4476
V\u3093
asV\u3083\u30fc\u5bdd
p4477
(lp4478
V\u308b
aV\u308b
asV\u304b\u3068\u601d
p4479
(lp4480
V\u3063
asV\u307e\u3093\u307e
p4481
(lp4482
V\u30fc
aV\u8089
aV\u8089
asV\u3001\u4f55\u3057
p4483
(lp4484
V\u305f
aV\u3066
asV\u307e\u3093\u306a
p4485
(lp4486
V\u3044
aV\u3044
asV\u3093\u306a\u306e
p4487
(lp4488
V\u3088
aV\u3088
aV\uff5e
aV\u3088
aV\u5618
asV\u5fc3\u914d\u3057
p4489
(lp4490
V\u3066
asV\u5fc3\u914d\u3055
p4491
(lp4492
V\u305b
asV\u3087\u3001\u3061
p4493
(lp4494
V\u3087
aV\u3087
asV\u3078\uff5e\u3001
p4495
(lp4496
V\u305d
aV\u697d
aV\u305d
asV\u3093\u306a\u305b
p4497
(lp4498
V\u3053
aV\u3053
asV\u304b\u3063\u3066
p4499
(lp4500
V\u308b
aV\u308b
aV\u308b
aV\u308b
aV\uff1f
aV\u308b
aV\u308b
aV\u308b
aV\u3044
aV\u308b
aV\u308b
aV\u3044
aV\u308b
aV\u308b
aV\u308b
aV\uff1f
asV\uff5e\u3002\u53ef
p4501
(lp4502
V\u611b
asV\u3002\u5927\u4e08
p4503
(lp4504
V\u592b
asV\u3093\u306a\u3053
p4505
(lp4506
V\u3068
aV\u3068
aV\u3068
aV\u3068
aV\u3068
aV\u3068
asV\u30e1\u2026\u2026
p4507
(lp4508
V\u3002
ag790
ag790
ag790
aV\u3002
asV\u3051\u3069\u2026
p4509
(lp4510
V\u2026
aV\u2026
aV\u2026
asV\u3093\u306a\u3055
p4511
(lp4512
V\u3044
asV\u307e\u3093\u304b
p4513
(lp4514
V\u3041
asV\u306b\u304d\u305f
p4515
(lp4516
V\u306e
asV\u3057\u3057\uff01
p4517
(lp4518
g790
asV\u3093\u306a\u3041
p4519
(lp4520
V\u2026
asV\u6301\u3061\u306f
p4521
(lp4522
V\u5206
aV\u5206
asV\u3093\u306a\u3044
p4523
(lp4524
g790
aV\u3002
aV\u3002
asV\u3061\u3083\u3063
p4525
(lp4526
V\u3066
aV\u3066
aV\u305f
aV\u3066
aV\u3066
asV\u3044\u306e\uff01
p4527
(lp4528
g790
asV\u3078\uff5e\u3063
p4529
(lp4530
V\u3001
aV\u3001
aV\u3001
aV\u3001
asV\u3059\u3050\u8131
p4531
(lp4532
V\u3054
asV\u3082\u3066\u306a
p4533
(lp4534
V\u3044
aV\u3044
asV\u3063\u304b\u305d
p4535
(lp4536
V\u3063
asV\u8ab0\u3060\uff01
p4537
(lp4538
V\u3053
aV\u3053
aV\u3053
asV\u3051\u3060\u306d
p4539
(lp4540
g790
asV\u3002\u3064\u307e
p4541
(lp4542
V\u3093
aV\u3093
asV\u3043\u306b\uff1f
p4543
(lp4544
g790
aV\u3069
ag790
aV\u3069
ag790
ag790
aV\u5165
asV\u305b\u3063\u304b
p4545
(lp4546
V\u304f
asV\u5927\u4e08\u592b
p4547
(lp4548
V\uff1f
aV\u3060
aV\u3060
aV\u5927
ag790
aV\u5927
aV\uff01
aV\u3067
aV\u3060
ag790
aV\uff1f
aV\uff1f
aV\u5927
aV\uff01
aV\u3060
aV\uff1f
aV\u3060
aV\uff1f
asV\u304a\u304a\uff5e
p4549
(lp4550
V\u3001
asV\u3002\u53ef\u611b
p4551
(lp4552
V\u3044
asV\u3061\u3083\u3046
p4553
(lp4554
V\u3088
aV\u3088
aV\u3088
asV\u3048\uff1f\u3048
p4555
(lp4556
V\u3063
asV\u308b\u3051\u3069
p4557
(lp4558
V\u306d
aV\u2026
aV\u306d
aV\u2026
asV\u65e5\u306f\u3069
p4559
(lp4560
V\u3093
asV\u3067\u3082\u2026
p4561
(lp4562
V\u2026
aV\u2026
aV\u2026
asV\u3068\u898b\u305b
p4563
(lp4564
V\u3066
aV\u3066
asV\u3047\uff5e\u2026
p4565
(lp4566
V\u2026
aV\u2026
asV\u307e\u30fc\u3001
p4567
(lp4568
V\u305d
asV\u306a\u304d\u3083
p4569
(lp4570
g790
asV\u3001\u9060\u616e
p4571
(lp4572
V\u3057
asV\u306a\u3041\uff1f
p4573
(lp4574
g790
ag790
ag790
ag790
asV\u3001\u304a\u5144
p4575
(lp4576
V\u3061
aV\u3061
aV\u3061
aV\u3061
aV\u3061
aV\u3061
aV\u3061
aV\u3061
aV\u3061
aV\u3061
aV\u3061
aV\u3061
aV\u3061
aV\u3061
aV\u3061
aV\u3061
aV\u3061
asV\u3093\u3058\u3083
p4577
(lp4578
V\u306a
aV\u306a
aV\u306a
aV\u306a
aV\u306a
asV\u3082\u3042\u3063
p4579
(lp4580
V\u305f
asV\u3059\u3063\u3054
p4581
(lp4582
V\u304f
aV\u304f
aV\u304f
aV\u304f
asV\u3061\u3083\u3093
p4583
(lp4584
g790
aV\u3002
aV\u306a
aV\u306e
ag790
aV\u3092
ag790
aV\u2026
aV\u304c
aV\u3002
ag790
ag790
aV\u2026
aV\u2026
aV\u2026
aV\u3067
aV\u3092
aV\u3002
aV\u306b
aV\u3068
aV\u4f55
aV\u3001
aV\u2026
aV\u3068
aV\u304b
ag790
aV\u3067
aV\u3068
aV\u2026
aV\u7537
aV\u4f55
aV\u3002
aV\uff1f
aV\u306a
aV\u304b
aV\u3001
ag790
aV\u3092
aV\u3063
aV\u3068
aV\u3063
aV\u3001
aV\u3061
aV\u3084
aV\u3068
aV\u3063
ag790
aV\uff01
ag790
aV\uff01
aV\u6642
aV\u2026
aV\u305f
aV\uff1f
aV\uff1f
ag790
aV\u306f
aV\uff01
aV\u304c
aV\u3068
aV\u2026
aV\u4f55
aV\u306e
aV\u306a
aV\u304c
aV\u2026
ag790
aV\u3082
aV\u3082
aV\u51b7
aV\u3068
aV\u306e
aV\u304c
aV\u306f
ag790
ag790
aV\u306e
aV\u56f0
ag790
aV\u305f
aV\u2026
aV\u2026
aV\u306b
aV\u3002
aV\u3002
aV\uff1f
aV\uff01
aV\uff1f
ag790
aV\u8336
ag790
asV\uff01\u65e9\u304f
p4585
(lp4586
V\u51fa
asV\u3068\u898b\u3061
p4587
(lp4588
V\u3083
asV\u308f\u308f\u3063
p4589
(lp4590
V\uff01
aV\u3001
aV\u3001
asV\u3057\u3044\u3088
p4591
(lp4592
V\uff5e
aV\uff5e
aV\uff5e
asV\u307e\u30fc\u305d
p4593
(lp4594
V\u308c
asV\u6c17\u304c\u9055
p4595
(lp4596
V\u3046
asV\u30b3\u3044\u3044
p4597
(lp4598
V\u3088
aV\u3088
asV\u3046\u3001\u306b
p4599
(lp4600
V\u3043
asV\u305d\u3053\u305d
p4601
(lp4602
V\u8997
asV\u2026\u99c4\u76ee
p4603
(lp4604
V\u3060
aV\u3060
asV\u3060\u3088\u2026
p4605
(lp4606
V\u2026
asV\u6700\u8fd1\u306e
p4607
(lp4608
V\u306b
aV\u306b
aV\u306b
aV\u306b
aV\u306b
asV\u2026\u4f55\u3057
p4609
(lp4610
V\u3066
asV\u3061\u3083\u30c0
p4611
(lp4612
V\u30e1
asV\u3083\u306a\u304f
p4613
(lp4614
V\u3066
aV\u3066
aV\u3066
aV\u3066
aV\u3066
aV\u3066
asV\u3046\u3001\u305d
p4615
(lp4616
V\u306e
asV\u3093\u306a\u3093
p4617
(lp4618
V\u3060
aV\u3060
aV\u3060
aV\u3060
aV\u3060
asV\u3083\u306a\u3044
p4619
(lp4620
V\u3082
aV\u306e
aV\u306e
aV\uff1f
aV\uff01
aV\uff01
aV\uff1f
aV\u306e
aV\uff01
aV\u306e
aV\u306e
aV\uff5e
asV\u3002\u3088\u3046
p4621
(lp4622
V\u3084
aV\u3084
aV\u3084
asV\u3001\u4efb\u305b
p4623
(lp4624
V\u3066
aV\u3066
asV\u3093\u306a\u3089
p4625
(lp4626
V\u51fa
aV\u3069
aV\u3069
asV\u30c8\u3067\u3088
p4627
(lp4628
V\u308d
asV\u304b\u3001\u304a
p4629
(lp4630
V\u5144
asV\u3093\u306a\u3082
p4631
(lp4632
V\u3044
asV\u3075\u30fc\u3093
p4633
(lp4634
V\u3060
aV\u3060
ag790
ag790
asV\u306a\u304b\u3063
p4635
(lp4636
V\u305f
aV\u305f
asV\u3046\u3001\u3046
p4637
(lp4638
V\u3093
aV\u3046
aV\u3046
aV\u308b
aV\u3093
aV\u3093
asV\u306a\u304f\u53ef
p4639
(lp4640
V\u611b
aV\u611b
aV\u611b
asV\u3082\uff5e\u3002
p4641
(lp4642
V\u305d
aV\u305d
asV\u306f\u3080\u306f
p4643
(lp4644
V\u3080
aV\u3080
asV\u3089\uff01\u3082
p4645
(lp4646
V\u3046
asV\u3067\u3069\u3046
p4647
(lp4648
V\u306a
asV\uff01\u3084\u308d
p4649
(lp4650
V\u3046
aV\u3046
aV\u3084
aV\u3084
asV\u3066\u611f\u3058
p4651
(lp4652
V\u304c
aV\u304c
asV\u2026\u3046\u3001
p4653
(lp4654
V\u3046
asV\u6c17\u306b\u306a
p4655
(lp4656
V\u3063
aV\u3063
aV\u3063
asV\u3057\u3066\u640d
p4657
(lp4658
V\u3057
asV\u3042\u308a\u304c
p4659
(lp4660
V\u3068
aV\u3068
aV\u3068
aV\u3068
aV\u3068
aV\u3068
aV\u3068
aV\u3068
aV\u3068
aV\u3068
aV\u3068
aV\u3068
aV\u3068
aV\u3068
aV\u3068
aV\u3068
asV\u3088\u30fc\u3001
p4661
(lp4662
V\u5909
asV\u2026\u2026\u884c
p4663
(lp4664
V\u304f
asV\u7740\u66ff\u3048
p4665
(lp4666
V\u4e2d
aV\u4e2d
asV\u5730\u60aa\uff01
p4667
(lp4668
g790
ag790
asV\uff01\u3069\u3046
p4669
(lp4670
V\u3057
asV\u305f\u306e\u306f
p4671
(lp4672
V\u306b
asV\u2026\u306a\u308b
p4673
(lp4674
V\u307b
asV\u306f\u3041\u2026
p4675
(lp4676
V\u2026
aV\u2026
aV\u2026
aV\u2026
asV\u2026\u2026\u683c
p4677
(lp4678
V\u597d
aV\u597d
asV\u3057\u307f\u306b
p4679
(lp4680
V\u3057
aV\u3057
aV\u3057
asV\u640d\u3057\u305f
p4681
(lp4682
V\u306e
aV\u306e
asV\u3088\uff01\u81ea
p4683
(lp4684
V\u4fe1
aV\u4fe1
asV\u306b\u306f\u5206
p4685
(lp4686
V\u304b
aV\u304b
asV\u3042\u3052\u306a
p4687
(lp4688
V\u3044
aV\u3044
asV\u2026\u306a\u3093
p4689
(lp4690
V\u304b
asV\u305f\u3089\u5225
p4691
(lp4692
V\u306b
asV\u306a\u3044\u3057
p4693
(lp4694
g790
asV\u306b\u3068\u30a6
p4695
(lp4696
V\u30e1
asV\u30fc\u30fc\u3044
p4697
(lp4698
V\uff01
aV\uff01
aV\u3063
aV\uff01
asV\u3059\u30fc\u3001
p4699
(lp4700
V\u3059
asV\uff5e\u3059\u3063
p4701
(lp4702
V\uff01
aV\uff01
asV\u7d17\u6c5f\u3061
p4703
(lp4704
V\u3083
aV\u3083
aV\u3083
aV\u3083
aV\u3083
aV\u3083
aV\u3083
aV\u3083
aV\u3083
asV\u304a\u8179\u3059
p4705
(lp4706
V\u3044
aV\u3044
asV\u640d\u3057\u3061
p4707
(lp4708
V\u3083
asV\u76ee\u3060\u3088
p4709
(lp4710
g790
ag790
asV\u30fc\u30fc\u3063
p4711
(lp4712
V\uff01
aV\uff01
aV\uff01
aV\uff01
aV\uff01
aV\uff01
aV\uff01
aV\uff01
asV\u3083\u3093\u56f0
p4713
(lp4714
V\u308b
asV\uff01\u305f\u3053
p4715
(lp4716
V\u3055
asg184
(lp4717
g790
asV\u3082\u3001\u3044
p4718
(lp4719
V\u3063
asV\u2026\u3046\u3093
p4720
(lp4721
g790
ag790
aV\u3002
asV\u2026\u306a\u3044
p4722
(lp4723
g790
asV\u3089\u5225\u306b
p4724
(lp4725
V\u3001
asV\u3044\u3046\u4e8b
p4726
(lp4727
V\u3060
aV\u3060
aV\u3060
asV\u3092\u3069\u3046
p4728
(lp4729
V\u306b
aV\u306b
aV\u306b
asV\u2026\u5b66\u6821
p4730
(lp4731
V\u3067
aV\u3067
asV\u3070\u3070\u30fc
p4732
(lp4733
V\u3044
aV\u3044
asV\u2026\u306a\u306b
p4734
(lp4735
V\u3057
aV\u3057
aV\u3088
aV\u3057
asV\uff1f\u7f8e\u4e5f
p4736
(lp4737
V\u306b
aV\u306b
aV\u306b
aV\u306b
aV\u306b
aV\u306b
aV\u306b
aV\u306b
asV\u4f9b\u3063\u307d
p4738
(lp4739
V\u3044
asV\u3088\u30fc\u3082
p4740
(lp4741
V\u3046
aV\u3046
aV\u3046
asV\u3001\u304a\u3063
p4742
(lp4743
V\u306f
aV\u306f
aV\u306f
aV\u306f
aV\u306f
aV\u306f
aV\u306f
aV\u306f
aV\u306f
aV\u306f
aV\u306f
aV\u306f
aV\u306f
aV\u306f
aV\u306f
aV\u306f
aV\u306f
aV\u306f
aV\u306f
aV\u306f
aV\u306f
aV\u306f
aV\u306f
aV\u306f
aV\u306f
asV\u3093\u304c\u90aa
p4744
(lp4745
V\u9b54
asV\u3051\u308b\u306d
p4746
(lp4747
V\uff01
asV\u3082\u301c\u3001
p4748
(lp4749
V\u304a
asV\u52dd\u3061\u76ee
p4750
(lp4751
V\u306f
asV\u306b\u8a00\u3063
p4752
(lp4753
V\u3066
aV\u3066
asV\u3053\u3055\u3093
p4754
(lp4755
V\u306f
asV\u4efb\u305b\u3066
p4756
(lp4757
V\u4efb
ag790
aV\u304a
aV\u4efb
ag790
aV\u304a
asV\u5bdd\u308b\u304b
p4758
(lp4759
V\u3089
aV\u3089
asV\u30bc\u30f3\u30c8
p4760
(lp4761
V\u30fc
aV\u3057
aV\u30fc
aV\u30fc
aV\u306f
aV\u697d
aV\u697d
aV\u697d
aV\u3057
asV\u771f\u9762\u76ee
p4762
(lp4763
V\u306b
aV\u306b
asV\u7d42\u308f\u3063
p4764
(lp4765
V\u3066
asV\u30fc\u30fc\u30fc
p4766
(lp4767
V\u3063
aV\u30fc
aV\u3063
aV\u3063
aV\u3044
aV\u3044
aV\u3044
aV\u3063
aV\u30fc
aV\uff01
aV\u3063
aV\u3063
aV\u30fc
aV\u3063
aV\u30fc
aV\u3063
aV\u30fc
aV\u30fc
aV\u3045
ag790
aV\u30fc
aV\u30fc
aV\u30fc
aV\u30fc
aV\uff01
aV\u3044
aV\u30fc
aV\u30fc
aV\u30fc
aV\u30fc
aV\uff01
asV\u306b\u9023\u308c
p4768
(lp4769
V\u3066
aV\u3066
asV\u308b\u3088\u306d
p4770
(lp4771
g790
asV\u3087\u3076\u3060
p4772
(lp4773
V\u3088
asV\u3089\uff01\u307f
p4774
(lp4775
V\u3083
asV\u3057\u304b\u3057
p4776
(lp4777
V\u3066
aV\u3066
asV\u305f\u3088\u304a
p4778
(lp4779
V\u5144
aV\u5144
asV\u3054\u98ef\u3001
p4780
(lp4781
V\u4f55
asV\u3089\uff01\u5f85
p4782
(lp4783
V\u3066
aV\u3066
aV\u3066
asV\u308a\u30b9\u30a6
p4784
(lp4785
V\u30a3
asV\u3063\u304d\u307e
p4786
(lp4787
V\uff5e
aV\uff5e
asV\u9045\u304f\u3057
p4788
(lp4789
V\u3066
aV\u3066
asV\u3057\u3066\u6b32
p4790
(lp4791
V\u3057
aV\u3057
asV\u3046\u3046\u2026
p4792
(lp4793
V\u2026
asV\u30fc\u30fc\uff01
p4794
(lp4795
V\u3084
aV\u3084
ag790
aV\uff01
aV\uff01
asV\u308a\u304c\u3068
p4796
(lp4797
V\uff5e
aV\u3046
aV\u3046
aV\u3046
aV\uff01
aV\u306b
aV\u30fc
aV\u3046
aV\u30fc
aV\u30fc
aV\u30fc
aV\u30fc
aV\u30fc
aV\u3046
aV\u30fc
ag790
asV\u4e5f\u306b\u8a00
p4798
(lp4799
V\u3063
aV\u3063
asg142
(lp4800
g790
ag790
asV\u3088\u30fc\uff01
p4801
(lp4802
V\u306a
aV\u306a
asV\u306b\u7528\u4e8b
p4803
(lp4804
V\uff1f
aV\uff1f
aV\uff1f
asV\uff01\u5909\u8cea
p4805
(lp4806
V\u8005
asV\u305f\u304f\u3001
p4807
(lp4808
V\u59b9
asV\u5f53\u305f\u308a
p4809
(lp4810
V\u524d
aV\u524d
asV\u592b\uff01\u307f
p4811
(lp4812
V\u3083
aV\u3083
asV\u308b\u5206\u304b
p4813
(lp4814
V\u3063
aV\u3063
asV\u4f55\u3092\u3084
p4815
(lp4816
V\u3063
asV\u3089\uff5e\uff01
p4817
(lp4818
V\u9854
aV\u9854
asV\u3057\u3066\u304a
p4819
(lp4820
V\u3081
aV\u3081
asV\u3093\u4f55\u3057
p4821
(lp4822
V\u3066
asV\u3053\u3093\u306a
p4823
(lp4824
V\u65e5
aV\u5b50
asV\u2026\u2026\u672c
p4825
(lp4826
V\u5f53
asV\u30b9\u30b1\u30d9
p4827
(lp4828
V\uff01
aV\u306b
aV\uff01
aV\uff01
aV\u306a
aV\u306b
asV\u5b50\u4f9b\u3058
p4829
(lp4830
V\u3083
asV\u30b2\u30fc\u30e0
p4831
(lp4832
V\u306e
asV\u3093\u4f55\u3067
p4833
(lp4834
V\u3044
aV\u3044
asV\u5b50\u4f9b\u3063
p4835
(lp4836
V\u307d
asV\u9854\u8272\u304c
p4837
(lp4838
V\u826f
aV\u60aa
asV\u30eb\u30b3\u30fc
p4839
(lp4840
V\u30c8
asV\u3088\u3002\u5927
p4841
(lp4842
V\u4e08
asV\u307f\u306a\u3055
p4843
(lp4844
V\u3044
aV\u3044
aV\u3044
aV\u3044
aV\u3044
aV\u3044
aV\u3044
aV\u3044
aV\u3044
aV\u3044
aV\u3044
aV\u3044
aV\u3044
aV\u3044
aV\u3044
aV\u3044
aV\u3044
aV\u3044
asV\u304d\u305f\u3093
p4845
(lp4846
V\u3060
aV\u3060
asV\u732b\u304c\u6765
p4847
(lp4848
V\u306a
aV\u306a
asV\u304d\u305f\u306e
p4849
(lp4850
V\u3088
asV\u78ba\u304b\u306b
p4851
(lp4852
g790
ag790
asV\u5e74\u3082\u3088
p4853
(lp4854
V\u308d
aV\u308d
asV\u3063\u306f\u3088
p4855
(lp4856
V\u30fc
aV\u30fc
aV\u30fc
aV\u30fc
aV\u30fc
aV\u30fc
aV\u30fc
aV\u30fc
aV\u30fc
aV\u30fc
aV\u30fc
aV\u30fc
aV\u30fc
aV\u30fc
aV\u30fc
aV\u30fc
aV\u30fc
aV\u30fc
aV\u30fc
aV\u30fc
aV\u30fc
aV\u30fc
aV\u30fc
aV\u30fc
aV\u30fc
asV\u3083\u308f\u304b
p4857
(lp4858
V\u308b
asV\u30aa\u30eb\uff5e
p4859
(lp4860
V\u3002
asV\u305f\u3088\uff1f
p4861
(lp4862
V\u306b
asV\u30e9\u30e1\u30fc
p4863
(lp4864
V\u30fc
asV\u5473\u3057\u305d
p4865
(lp4866
V\u3046
aV\u3046
asV\u3068\u306f\u5973
p4867
(lp4868
V\u306e
asV\u3060\u2026\u2026
p4869
(lp4870
g790
ag790
ag790
ag790
asV\u7523\u306f\u306a
p4871
(lp4872
V\u3044
asV\u3041\u3002\u307e
p4873
(lp4874
V\u3042
aV\u3042
asV\u306b\uff01\u6d41
p4875
(lp4876
V\u3055
asV\u3044\u3061\u3083
p4877
(lp4878
V\u3063
asV\u3063\u3066\u2026
p4879
(lp4880
V\u2026
aV\u2026
asV\u3088\uff5e\uff01
p4881
(lp4882
g790
ag790
ag790
asV\u3053\u308c\u3067
p4883
(lp4884
V\u3044
aV\u3044
asV\u3048\u3063\u2026
p4885
(lp4886
V\u2026
aV\u2026
asV\u305f\u3088\uff5e
p4887
(lp4888
V\u3002
asV\u305f\u65b9\u304c
p4889
(lp4890
V\u3044
aV\u3044
asV\u3041\u3001\u53ef
p4891
(lp4892
V\u611b
asV\u3044\u3053\u3068
p4893
(lp4894
V\u3059
aV\u3042
aV\u3042
asV\u3001\u3080\u3080
p4895
(lp4896
V\u3080
aV\u3080
asV\u308c\u304f\u3089
p4897
(lp4898
V\u3044
aV\u3044
asV\u4eca\u3001\u3053
p4899
(lp4900
V\u3063
aV\u3063
asV\u3057\u307e\u3063
p4901
(lp4902
V\u305f
aV\u305f
aV\u305f
asV\u304b\u305d\u3063
p4903
(lp4904
V\u304b
asV\u306f\u7f6e\u3044
p4905
(lp4906
V\u3068
aV\u3068
asV\u8a71\u306f\u7f6e
p4907
(lp4908
V\u3044
asV\u3067\u6355\u307e
p4909
(lp4910
V\u3063
aV\u3063
aV\u3063
asV\u304f\u5e30\u308b
p4911
(lp4912
V\u3063
asV\u3046\u306a\u308b
p4913
(lp4914
V\uff01
asV\u304a\u571f\u7523
p4915
(lp4916
V\u306f
asV\u51fa\u3057\u305f
p4917
(lp4918
V\u306e
asg464
(lp4919
g790
ag790
asV\u4e07\u5186\u9810
p4920
(lp4921
V\u3051
asV\u305d\u308c\u30fc
p4922
(lp4923
V\uff01
asV\u3073\u306b\u6765
p4924
(lp4925
V\u308b
aV\u308b
asV\u3002\u30ce\u30ea
p4926
(lp4927
V\u304c
asV\u2026\u5927\u4e08
p4928
(lp4929
V\u592b
asV\u305f\u3002\u65e9
p4930
(lp4931
V\u304f
aV\u304f
asV\u3046\u306a\u3093
p4932
(lp4933
V\u3060
aV\u3060
aV\u3060
aV\u3060
aV\u3060
aV\u3060
aV\u3060
aV\u3060
aV\u3060
aV\u3060
aV\u3060
aV\u3060
aV\u3060
aV\u3060
asV\u30de\u3055\u3093
p4934
(lp4935
V\u306a
aV\u3092
aV\u3092
aV\u306a
asV\u3057\u3044\uff01
p4936
(lp4937
g790
ag790
asV\u305f\u30af\u30de
p4938
(lp4939
V\u3055
aV\u3055
asV\u97f3\u3001\u5c0f
p4940
(lp4941
V\u3055
aV\u3055
asV\u4e8b\u306a\u5927
p4942
(lp4943
V\u76db
asV\u3042\uff5e\u3001
p4944
(lp4945
V\u3046
asV\u597d\u304d\u3060
p4946
(lp4947
V\u3088
aV\u3088
asV\u597d\u60aa\u3044
p4948
(lp4949
V\u304b
aV\u304b
asV\u4e5f\u306f\u3044
p4950
(lp4951
V\u3044
asV\u304a\u3084\u3059
p4952
(lp4953
V\u307f
aV\u307f
aV\u307f
aV\u307f
aV\u307f
aV\u307f
aV\u307f
aV\u307f
aV\u307f
aV\u307f
aV\u307f
aV\u307f
aV\u307f
aV\u307f
aV\u307f
aV\u307f
aV\u307f
aV\u307f
aV\u307f
aV\u307f
aV\u307f
aV\u307f
aV\u307f
aV\u307f
aV\u307f
aV\u307f
aV\u307f
aV\u307f
aV\u307f
aV\u307f
aV\u307f
aV\u307f
aV\u307f
aV\u307f
aV\u307f
aV\u307f
aV\u307f
aV\u307f
aV\u307f
aV\u307f
aV\u307f
aV\u307f
asV\u304a\u304a\u3063
p4954
(lp4955
V\uff01
asV\u3001\u9762\u767d
p4956
(lp4957
V\u3044
asV\u30d3\u30fc\u306f
p4958
(lp4959
V\u9810
asV\u3063\u3068\u2026
p4960
(lp4961
V\u2026
aV\u2026
asV\u304e\u308b\u3088
p4962
(lp4963
g790
asV\u3063\u3002\u306b
p4964
(lp4965
V\u3063
aV\u3063
aV\u3063
asV\u3093\u3046\u3093
p4966
(lp4967
V\u3002
aV\u3002
aV\u3002
aV\u3001
asV\u3063\u3061\u306b
p4968
(lp4969
V\u9ed2
aV\u9ed2
asV\uff01\u99ac\u9e7f
p4970
(lp4971
V\u306b
aV\u5144
aV\u306b
asV\u304d\u3083\u301c
p4972
(lp4973
V\u3063
asV\u2026\u5f53\u305f
p4974
(lp4975
V\u308a
asV\u304f\u8a00\u3046
p4976
(lp4977
V\u6c17
aV\u6c17
aV\u6c17
asV\u3063\u2026\u2026
p4978
(lp4979
g790
ag790
asV\u305d\u308c\u3058
p4980
(lp4981
V\u3083
aV\u3083
aV\u3083
aV\u3083
aV\u3083
aV\u3083
aV\u3083
aV\u3083
aV\u3083
asV\u4e8b\u3060\u304b
p4982
(lp4983
V\u3089
aV\u3089
aV\u3089
asV\u8a00\u3063\u3066
p4984
(lp4985
V\u308b
aV\u308b
aV\u3082
aV\u305f
aV\u3082
asV\u307b\u3093\u3068
p4986
(lp4987
V\u30fc
aV\u306b
asV\u306a\u3093\u304b
p4988
(lp4989
V\u7f8e
aV\u7f8e
aV\u306a
aV\u3044
asV\u307e\u30fc\uff01
p4990
(lp4991
g790
asV\u5909\u3060\u3063
p4992
(lp4993
V\u305f
asV\u306f\u30fc\u3002
p4994
(lp4995
V\u307e
asV\u5206\u304b\u308b
p4996
(lp4997
V\u3051
aV\u3088
aV\u3088
aV\u3051
aV\u3082
aV\u3082
asV\u51b4\u3048\u3066
p4998
(lp4999
V\u308b
asV\u3063\u3061\u3083
p5000
(lp5001
V\u3046
aV\u3046
aV\u3046
asV\u3060\u3082\u30fc
p5002
(lp5003
V\u3093
aV\u3093
aV\u3093
asV\u3066\uff01\u7740
p5004
(lp5005
V\u66ff
aV\u66ff
asV\u3067\u3084\u308c
p5006
(lp5007
V\u3070
asV\u305d\u308c\u304f
p5008
(lp5009
V\u3089
aV\u3089
asV\u306a\u3093\u3066
p5010
(lp5011
V\u51fa
ag790
ag790
asV\u306a\u3093\u3067
p5012
(lp5013
V\u30fc
aV\uff1f
aV\u3053
aV\u304a
aV\uff1f
asV\u306a\u3093\u3060
p5014
(lp5015
V\u3088
ag790
aV\u2026
aV\u304b
ag790
ag790
aV\u2026
ag790
ag790
aV\u3088
aV\uff5e
ag790
aV\u3001
aV\u3001
ag790
ag790
aV\u3088
aV\u2026
aV\u304b
ag790
aV\u3068
aV\u304b
aV\u304b
aV\u3088
aV\u304b
aV\u3088
ag790
aV\uff5e
ag790
asV\u304b\u304f\u3060
p5016
(lp5017
V\u3057
asV\u306a\u3093\u306e
p5018
(lp5019
V\u7528
aV\u7528
asV\u306a\u3093\u3068
p5020
(lp5021
V\u306a
aV\u306a
aV\u306a
asV\u9577\u305d\u3046
p5022
(lp5023
V\u3060
aV\u3060
aV\u3060
asV\u306a\u3093\u306a
p5024
(lp5025
V\u306e
aV\u306e
aV\u306e
asV\u305d\u308c\u3063
p5026
(lp5027
V\u3066
aV\u3066
asV\u512a\u308c\u3066
p5028
(lp5029
V\u308b
asV\u305d\u308c\u3067
p5030
(lp5031
V\uff1f
aV\u3001
aV\uff1f
aV\uff1f
aV\uff1f
asV\u30ab\u30c3\u30b3
p5032
(lp5033
V\u3044
aV\u3044
asV\u5f7c\u5973\u306e
p5034
(lp5035
V\u4e00
aV\u4e00
asV\u3068\u30ab\u30c3
p5036
(lp5037
V\u30b3
aV\u30b3
asV\u3001\u4eca\u65e5
p5038
(lp5039
V\u3082
asV\u306e\uff5e\uff01
p5040
(lp5041
g790
asV\u306a\u305b\u3053
p5042
(lp5043
V\u3044
aV\u3044
asV\u30c0\u3001\u30c0
p5044
(lp5045
V\u30e1
aV\u30e1
asV\u660e\u65e5\u306f
p5046
(lp5047
V\u3069
asV\u3044\u304f\u3089
p5048
(lp5049
V\u640d
aV\u640d
asV\u3046\u306a\u306e
p5050
(lp5051
V\u30fc
aV\u3060
asV\u3042\u308b\u306e
p5052
(lp5053
V\u3060
asV\u81ea\u5206\u3067
p5054
(lp5055
V\u3084
asV\u3093\u307c\uff01
p5056
(lp5057
V\u77e5
asV\u3054\u3046\u3063
p5058
(lp5059
V\u3068
aV\u3068
asV\u3067\u3068\u3046
p5060
(lp5061
V\uff01
aV\uff01
asV\u4e8b\u3060\u3063
p5062
(lp5063
V\u3066
asg506
(lp5064
g790
ag790
asV\u3060\u306d\u30fc
p5065
(lp5066
g790
asV\u3002\u6642\u9593
p5067
(lp5068
V\u304c
asV\u5618\u3060\u3088
p5069
(lp5070
V\uff01
asV\u3055\u3057\uff5e
p5071
(lp5072
g790
asV\u611f\u3058\u3060
p5073
(lp5074
V\u306d
aV\u306d
aV\u306d
asV\u2026\u9055\u3046
p5075
(lp5076
V\u3063
aV\u3063
asV\u3063\u3066\u611f
p5077
(lp5078
V\u3058
aV\u3058
asV\u306b\u7b54\u3048
p5079
(lp5080
V\u3066
aV\u3066
asV\u3060\u3082\u3093
p5081
(lp5082
g790
ag790
asV\u3068\u96f0\u56f2
p5083
(lp5084
V\u6c17
asV\u3059\u3050\u306b
p5085
(lp5086
V\u305d
asV\u3059\u3063\uff01
p5087
(lp5088
g790
ag790
asV\u3068\u3051\u307e
p5089
(lp5090
V\u305b
asV\u3002\u8a00\u3046
p5091
(lp5092
V\u4e8b
asV\u3044\u3044\u4e8b
p5093
(lp5094
V\u3067
aV\u3060
asV\u308f\u301c\u3001
p5095
(lp5096
V\u3073
aV\u3073
aV\u3073
asV\u30d0\u30a4\u30d0
p5097
(lp5098
V\u30fc
asV\u7f8e\u5473\u3057
p5099
(lp5100
V\u305d
aV\u305d
asV\uff1f\u306b\u3043
p5101
(lp5102
V\u306b
aV\u306b
aV\u306b
asV\u307e\uff5e\uff5e
p5103
(lp5104
V\uff5e
aV\uff5e
asV\u308f\u3063\u3001
p5105
(lp5106
V\u3069
aV\u3069
asV\u3093\u3001\u30c0
p5107
(lp5108
V\u30c3
asV\u3068\u4ef2\u826f
p5109
(lp5110
V\u304f
asV\u3061\u3093\u307c
p5111
(lp5112
V\uff01
asV\u306e\u7528\uff1f
p5113
(lp5114
g790
ag790
asV\u3093\u3001\u30d0
p5115
(lp5116
V\u30a4
asV\u3075\u308f\u308f
p5117
(lp5118
V\u308f
aV\u308f
asV\u3093\u3067\u3053
p5119
(lp5120
V\u3093
asV\u3053\u3068\u3070
p5121
(lp5122
V\u3063
aV\u3063
asV\u3001\u660e\u65e5
p5123
(lp5124
V\u306f
asV\u308c\u306b\u306a
p5125
(lp5126
V\u3093
asV\u306e\u306f\u306b
p5127
(lp5128
V\u3043
asV\u3046\u304a\u5144
p5129
(lp5130
V\u3061
aV\u3061
asV\uff01\u3042\u308a
p5131
(lp5132
V\u304c
asV\u2026\u306b\u3043
p5133
(lp5134
V\u306b
aV\u306b
asV\u4e8b\u3092\u3057
p5135
(lp5136
V\u3066
aV\u3066
asV\u308f\u3063\u3066
p5137
(lp5138
V\u306a
asV\u301c\u301c\u3063
p5139
(lp5140
V\uff01
aV\uff01
aV\uff01
aV\uff01
aV\uff01
asV\u3093\u3067\u3057
p5141
(lp5142
V\u3087
asV\u3053\u3068\u3067
p5143
(lp5144
V\u3088
asV\u304a\u306f\u3088
p5145
(lp5146
V\u30fc
aV\u30fc
aV\u30fc
aV\u30fc
aV\u30fc
aV\u30fc
aV\u30fc
aV\u30fc
aV\u30fc
aV\u30fc
aV\u30fc
aV\u30fc
aV\u30fc
aV\u30fc
aV\u30fc
aV\u30fc
aV\u30fc
aV\u30fc
aV\u30fc
aV\u30fc
aV\u30fc
aV\u30fc
aV\u30fc
aV\u30fc
aV\u30fc
aV\u30fc
aV\u30fc
aV\u30fc
aV\u30fc
aV\u30fc
asV\u3093\u3001\u30b2
p5147
(lp5148
V\u30fc
asV\u3053\u3068\u306a
p5149
(lp5150
V\u3044
aV\u306e
aV\u3044
asV\u3053\u3068\u306f
p5151
(lp5152
V\uff1f
asV\uff1f\u306b\u3001
p5153
(lp5154
V\u306b
asV\u2026\u2026\u306f
p5155
(lp5156
V\u3041
aV\u3041
aV\u3041
aV\u3041
aV\u301c
aV\uff5e
asV\u60aa\u3044\u304b
p5157
(lp5158
V\u3082
aV\u3082
asV\u3076\u306a\u30fc
p5159
(lp5160
V\u30fc
asV\u3053\u3068\u3059
p5161
(lp5162
V\u308b
asV\u305d\u308c\u306f
p5163
(lp5164
V\uff1f
aV\u2026
aV\u7f6e
aV\u3044
aV\u2026
asV\u3048\uff5e\u3063
p5165
(lp5166
V\uff01
asV\u3093\u3067\u304a
p5167
(lp5168
V\u5144
asV\u3066\u3070\u307b
p5169
(lp5170
V\u3093
asV\u308c\u306b\u3057
p5171
(lp5172
V\u3066
asV\uff01\u7f8e\u4e5f
p5173
(lp5174
V\u3060
aV\u3060
aV\u3001
asV\u60aa\u3044\u3051
p5175
(lp5176
V\u3069
asV\u307e\u305b\uff5e
p5177
(lp5178
V\u3093
aV\u3093
aV\u3093
aV\u3093
asV\u611f\u3058\u304c
p5179
(lp5180
V\u4e38
aV\u4e38
asV\u30a4\u30d3\u30fc
p5181
(lp5182
V\u306f
asV\u3080\u3063\u3001
p5183
(lp5184
V\u306a
aV\u306a
asV\u304b\u306a\u2026
p5185
(lp5186
V\u2026
asV\u305b\u3053\u3044
p5187
(lp5188
V\u4e8b
aV\u4e8b
asV\u4f55\u304b\u3057
p5189
(lp5190
V\u305f
asV\u304c\u306a\u3044
p5191
(lp5192
V\u306a
aV\u306a
aV\u306a
aV\u3058
aV\u306a
aV\u3058
aV\u306a
aV\u306a
aV\u306a
asV\u2026\u78ba\u304b
p5193
(lp5194
V\u306b
aV\u306b
asg564
(lp5195
g790
asV\u3093\u3001\u307e
p5196
(lp5197
V\u305f
aV\u305f
asV\u3066\u8ab0\uff1f
p5198
(lp5199
g790
ag790
asV\u306a\u304a\u5144
p5200
(lp5201
V\u3061
aV\u3061
aV\u3061
asV\u51fa\u308b\u304b
p5202
(lp5203
V\u3082
asV\u3093\u3001\u3042
p5204
(lp5205
V\u3076
asV\u301c\u301c\u301c
p5206
(lp5207
V\u3063
asV\u3002\u3059\u3063
p5208
(lp5209
V\u3054
asV\u3093\u306e\u7528
p5210
(lp5211
V\uff1f
aV\uff1f
asV\u3093\u3001\u3044
p5212
(lp5213
V\u3044
aV\u3089
aV\u3044
aV\u3044
asV\u98df\u3079\u305f
p5214
(lp5215
V\u3044
aV\u3044
asV\u3093\u3001\u305d
p5216
(lp5217
V\u3046
aV\u3046
aV\u308c
aV\u3046
aV\u3046
aV\u3046
aV\u308c
aV\u3046
asV\u3053\u3068\u3088
p5218
(lp5219
V\u308a
aV\u308a
asV\u306e\u3088\u30fc
p5220
(lp5221
V\u3082
aV\u3082
ag790
aV\u3082
asV\u4f55\u304b\u3063
p5222
(lp5223
V\u3066
aV\u3066
asV\u30f3\u30c8\u697d
p5224
(lp5225
V\u3057
aV\u3057
aV\u3057
asV\u306b\u305d\u3046
p5226
(lp5227
V\u306a
asV\u307b\u3069\uff5e
p5228
(lp5229
g790
asg514
(lp5230
g790
asV\u3088\u306b\u3043
p5231
(lp5232
V\u306b
asV\u3093\uff01\u5931
p5233
(lp5234
V\u6557
asV\u3041\u304a\u5144
p5235
(lp5236
V\u3061
aV\u3061
asV\u30fc\u3063\u3066
p5237
(lp5238
V\u611f
aV\u611f
asV\u306e\u2026\u2026
p5239
(lp5240
g790
asV\u3082\u3057\u304b
p5241
(lp5242
V\u3057
aV\u3057
asV\u3068\u7d04\u675f
p5243
(lp5244
V\u3057
asV\u4e88\u5b9a\u306f
p5245
(lp5246
V\u6c7a
aV\u6c7a
asV\u3066\u3044\u3046
p5247
(lp5248
V\u304b
asV\u304c\u3082\u3063
p5249
(lp5250
V\u305f
asV\u30fc\u3063\u3068
p5251
(lp5252
V\u2026
aV\u3001
aV\u3001
aV\u898b
aV\u3001
aV\u3001
asV\u4e88\u5b9a\u306a
p5253
(lp5254
V\u306e
asV\u96f0\u56f2\u6c17
p5255
(lp5256
V\u304c
asV\u3051\u3066\u304f
p5257
(lp5258
V\u308c
asV\u3046\u3086\u308b
p5259
(lp5260
V\u3055
asV\u304a\u3063\uff01
p5261
(lp5262
V\u304a
asV\u2026\u308f\u304b
p5263
(lp5264
V\u3063
asV\u306a\u306e\u304a
p5265
(lp5266
V\u5144
asV\u308b\u3088\uff01
p5267
(lp5268
g790
asV\u4f55\u3067\u3082
p5269
(lp5270
V\u306a
aV\u306a
aV\u306a
asV\u3048\u306d\u3048
p5271
(lp5272
V\uff01
aV\uff01
asV\u3044\u306e\u304b
p5273
(lp5274
V\u306a
aV\u306a
asV\u3063\u3060\u3044
p5275
(lp5276
V\u307e
aV\u307e
aV\u307e
asV\u304f\u9854\u8272
p5277
(lp5278
V\u304c
asV\u304f\u51fa\u3066
p5279
(lp5280
V\u3051
asV\u7d50\u5a5a\u3057
p5281
(lp5282
V\u305f
asV\u4e5f\u306e\u306a
p5283
(lp5284
V\u306e
asV\u3001\u5c0f\u3055
p5285
(lp5286
V\u304f
aV\u304f
asV\u5ea6\u7d17\u6c5f
p5287
(lp5288
V\u3061
asV\u3066\u306d\u306b
p5289
(lp5290
V\u3043
asV\u3082\u5bd2\u3044
p5291
(lp5292
V\u306d
asV\u3088\u3046\u2026
p5293
(lp5294
V\u2026
aV\u2026
aV\u2026
asV\u307d\u3044\u3053
p5295
(lp5296
V\u3068
asV\u3092\u90e8\u5c4b
p5297
(lp5298
V\u306b
aV\u306b
asV\u3066\u306d\u3002
p5299
(lp5300
V\u307f
aV\u307f
asV\u3044\u611f\u3058
p5301
(lp5302
V\u3060
aV\u3060
aV\u3060
asV\u308c\u3001\u304a
p5303
(lp5304
V\u5144
asV\u3046\u6c17\u306b
p5305
(lp5306
V\u306a
aV\u306a
aV\u306a
asV\u307e\u3060\u8a71
p5307
(lp5308
V\u306f
asV\u3066\u305f\u306e
p5309
(lp5310
V\uff1f
aV\u306b
aV\u30fc
aV\uff1f
asV\u3080\u3063\uff01
p5311
(lp5312
V\u7f8e
aV\u7f8e
asV\u3082\u51fa\u6765
p5313
(lp5314
V\u306a
aV\u306a
asV\u3041\u3001\u306b
p5315
(lp5316
V\u3043
asV\u30c7\u30ec\u30c7
p5317
(lp5318
V\u30ec
asV\u30c3\u30c1\u30a8
p5319
(lp5320
V\u30c3
aV\u30c3
asV\u3057\u305f\u65b9
p5321
(lp5322
V\u304c
aV\u304c
asV\u306f\u5927\u4e08
p5323
(lp5324
V\u592b
asV\u7b54\u3048\u3066
p5325
(lp5326
V\u3088
aV\u3088
asV\u3089\u307b\u3089
p5327
(lp5328
V\u3001
aV\uff5e
aV\uff5e
asV\u3051\u51fa\u3066
p5329
(lp5330
V\u3051
asV\u4fe1\u3082\u3063
p5331
(lp5332
V\u3066
aV\u3066
asV\u3046\u306b\u306d
p5333
(lp5334
V\uff01
asV\u30b9\u30a6\u30a3
p5335
(lp5336
V\u30fc
asV\uff5e\uff1f\u305d
p5337
(lp5338
V\u3093
aV\u3093
asV\u266a\u30d7\u30ed
p5339
(lp5340
V\u30ec
asV\u3066\u305f\u3093
p5341
(lp5342
V\u3060
asV\u3068\u3088\u308a
p5343
(lp5344
V\u4e8c
aV\u4e8c
asV\u4f9b\u3058\u3083
p5345
(lp5346
V\u306a
asV\u65e9\u304f\uff01
p5347
(lp5348
g790
ag790
asV\u30fc\u3001\u3059
p5349
(lp5350
V\u30fc
asV\u3061\u306f\u5206
p5351
(lp5352
V\u304b
aV\u304b
asV\u9854\u304c\u30b9
p5353
(lp5354
V\u30b1
aV\u30b1
asV\u3046\u306b\u304b
p5355
(lp5356
V\u3057
aV\u3057
aV\u3057
asV\u90e8\u5c4b\u306b
p5357
(lp5358
V\u9023
aV\u9023
asV\u3093\u307e\u30fc
p5359
(lp5360
g790
asV\u3046\u306b\u3043
p5361
(lp5362
V\u306b
asV\u65b9\u304c\u3044
p5363
(lp5364
V\u3044
aV\u3044
aV\u3044
asV\u65b9\u306f\u7121
p5365
(lp5366
V\u3044
aV\u3044
asV\u9053\u3057\u3066
p5367
(lp5368
V\u304d
aV\u304d
asV\u30fc\uff01\u99ac
p5369
(lp5370
V\u9e7f
aV\u9e7f
asV\u30c3\u30c1\u306a
p5371
(lp5372
V\u4e8b
asV\u30d9\uff01\u77e5
p5373
(lp5374
V\u3089
aV\u3089
aV\u3089
asV\u4f55\u3059\u308b
p5375
(lp5376
V\u3093
asV\u5f53\u3060\u3088
p5377
(lp5378
V\u306d
asV\u3088\u304f\u308f
p5379
(lp5380
V\u304b
aV\u304b
asV\u304b\u30fc\uff1f
p5381
(lp5382
g790
asV\u3067\u3059\u304b
p5383
(lp5384
V\u30fc
asV\u3055\u3063\u3059
p5385
(lp5386
V\u304c
asV\u4f55\u3067\u3044
p5387
(lp5388
V\u308b
aV\u308b
asV\u4f55\u3067\u3058
p5389
(lp5390
V\u3083
aV\u3083
asV\u308c\u3067\u3044
p5391
(lp5392
V\u3044
aV\u3044
asV\u3075\u306b\u3085
p5393
(lp5394
g790
ag790
asV\u7537\u524d\uff5e
p5395
(lp5396
g790
asV\u30c7\u30ec\u304a
p5397
(lp5398
V\u5144
asV00\u4e07
p5399
(lp5400
V\u5186
asV\u5973\u306e\u4e00
p5401
(lp5402
V\u4eba
aV\u4eba
asV\u65e5\u306f\u65e9
p5403
(lp5404
V\u304f
asV\u5927\u76db\u308a
p5405
(lp5406
V\u30b9
asV\u306a\u3082\u3044
p5407
(lp5408
V\u308b
asV\u304f\u3066\u3055
p5409
(lp5410
V\u2026
aV\u2026
aV\u2026
asV\u3060\u304a\u5144
p5411
(lp5412
V\u3061
asV\uff01\u96e2\u305b
p5413
(lp5414
V\u30fc
aV\u30fc
aV\u30fc
asV\u3080\u3080\uff01
p5415
(lp5416
V\u8997
aV\u8997
aV\u8997
aV\u8997
asV\u304f\u3089\u3044
p5417
(lp5418
V\u304a
aV\u5206
aV\u5206
asV\u3092\u3057\u3066
p5419
(lp5420
V\u304f
aV\u304f
asV\u307b\uff5e\u3089
p5421
(lp5422
V\uff01
asV\u304d\u3066\u3088
p5423
(lp5424
V\u30fc
aV\u30fc
asV\u308f\u304b\u3093
p5425
(lp5426
V\u306a
asV\u5148\u8f29\uff01
p5427
(lp5428
V\u3053
aV\u3053
aV\u3053
asV\u30fc\u3044\uff01
p5429
(lp5430
g790
ag790
ag790
ag790
ag790
asV\u3047\uff1f\u7f8e
p5431
(lp5432
V\u4e5f
aV\u4e5f
asV\u5f85\u3066\u99ac
p5433
(lp5434
V\u9e7f
aV\u9e7f
aV\u9e7f
asV\u3002\u3075\u308f
p5435
(lp5436
V\u308f
aV\u308f
asV\u9762\u767d\u3044
p5437
(lp5438
V\u3088
asV\u3053\u308c\u304b
p5439
(lp5440
V\u3089
asV\u3001\u5e73\u6c17
p5441
(lp5442
V\u3060
asV\u6ce3\u3044\u3066
p5443
(lp5444
V\u306a
asV\u3088\u306d\u3047
p5445
(lp5446
V\uff5e
aV\u2026
aV\uff5e
asV\u308d\u3046\u3084
p5447
(lp5448
V\u308d
aV\u308d
asV\u3048\u2026\u2026
p5449
(lp5450
V\u305d
asV\u5b50\u3060\u3082
p5451
(lp5452
V\u3093
aV\u3093
asV\u2026\u307e\u3093
p5453
(lp5454
V\u307e
asV\uff1f\u306a\u3093
p5455
(lp5456
V\u3067
asV\u305b\u3066\u304a
p5457
(lp5458
V\u5144
aV\u5144
asV\uff01\u3053\u3089
p5459
(lp5460
V\uff01
aV\u30fc
aV\u30fc
aV\u30fc
aV\uff01
aV\uff01
asV\u304b\u3089\u30c0
p5461
(lp5462
V\u30e1
aV\u30e1
aV\u30e1
aV\u30e1
asV\u304f\u3001\u59b9
p5463
(lp5464
V\u306b
asV\uff01\u3053\u308c
p5465
(lp5466
V\u3067
aV\u3067
asV\u3057\u306b\u304d
p5467
(lp5468
V\u305f
asV\u3093\u306e\u53cd
p5469
(lp5470
V\u5fdc
aV\u5fdc
asV\u3070\u3044\u3073
p5471
(lp5472
V\u30fc
asV\u308c\u3066\u308b
p5473
(lp5474
V\uff1f
asV\u8a00\u3048\u308b
p5475
(lp5476
V\u304b
asV\u306f\u7d42\u308f
p5477
(lp5478
V\u3063
asV\u3043\u306b\u30fc
p5479
(lp5480
V\u304a
aV\u304a
asV\u306b\uff5e\u3002
p5481
(lp5482
V\u671d
asV\u8a71\u805e\u3044
p5483
(lp5484
V\u3066
asV\u3089\u3057\u3043
p5485
(lp5486
V\u30fc
asV\u304c\u3044\u308b
p5487
(lp5488
V\u306e
asV\u30c3\u30b3\u3044
p5489
(lp5490
V\u3044
aV\u3044
asV\u3093\u3092\u3069
p5491
(lp5492
V\u3046
aV\u3046
aV\u3046
asV\u3048\u30fc\uff01
p5493
(lp5494
V\u306a
asV\u3092\u805e\u304b
p5495
(lp5496
V\u306a
asV\u304b\u3089\u3088
p5497
(lp5498
V\u308d
aV\u308d
aV\u308d
asV\u3066\u30fc\uff1f
p5499
(lp5500
g790
asV\u3063\u304f\u308a
p5501
(lp5502
V\u3057
aV\u3057
aV\u3057
asV\u4e38\u308f\u304b
p5503
(lp5504
V\u308a
aV\u308a
asV\u3059\u304b\u30fc
p5505
(lp5506
V\uff1f
asV\u56f0\u3063\u305f
p5507
(lp5508
V\u30af
aV\u30af
asV\u3060\u3001\u5927
p5509
(lp5510
V\u4e08
aV\u4e08
asV\u3057\u4eca\u65e5
p5511
(lp5512
V\u3082
asV\u306e\u307e\u3093
p5513
(lp5514
V\u307e
asV\u306b\u3001\u660e
p5515
(lp5516
V\u65e5
asV\u304b\u3089\u306b
p5517
(lp5518
V\u3043
asV\u3044\u3063\u305f
p5519
(lp5520
V\u3044
aV\u3060
aV\u3044
aV\u3060
asV\u304b\u3089\u306d
p5521
(lp5522
V\uff5e
asV\u3046\u304b\uff1f
p5523
(lp5524
g790
asV\u304b\u3089\u3063
p5525
(lp5526
V\u3066
asV\u304b\u3089\u3060
p5527
(lp5528
V\u3088
asV\u3001\u3048\u30fc
p5529
(lp5530
V\u3063
asV\u3043\u306b\u3001
p5531
(lp5532
V\u304a
aV\u304a
aV\u304a
aV\u304a
aV\u771f
aV\u304a
aV\u304a
aV\u3061
aV\u304a
aV\u5e30
aV\u304a
aV\u304a
aV\u3061
aV\u304a
aV\u660e
aV\u304a
aV\u3082
aV\u3061
aV\u6700
aV\u6700
aV\u3061
aV\u4f55
aV\u5927
aV\u771f
aV\u304a
aV\u5927
aV\u304a
aV\u304a
aV\u3061
aV\u30d7
aV\u4eca
aV\u4eca
aV\u304a
aV\u304a
aV\u304a
aV\u304a
aV\u304a
aV\u304a
aV\u7d17
aV\u304a
aV\u5927
aV\u304a
aV\u304a
aV\u304a
aV\u304a
asV\u30af\u306a\u3093
p5533
(lp5534
V\u3066
asV\u304c\u3044\u3044
p5535
(lp5536
V\u3093
aV\u3093
aV\u4e8b
asV\u3044\u3063\u3066
p5537
(lp5538
V\u3089
asV\u306a\u3001\u4f55
p5539
(lp5540
V\u3063
aV\u304b
aV\u3088
aV\u304b
asV\u3063\u3066\u4f55
p5541
(lp5542
V\uff1f
asV\u307f\u2026\u2026
p5543
(lp5544
g790
ag790
asV\u3057\u3057\u3002
p5545
(lp5546
V\u6b8b
aV\u4efb
aV\u30b5
aV\u4efb
aV\u30b5
asV\u3053\u305d\u8997
p5547
(lp5548
V\u3044
asV\u3083\u3001\u3044
p5549
(lp5550
V\u3063
aV\u3063
asV\u304b\u3089\u3044
p5551
(lp5552
V\u3044
aV\u3044
aV\u3044
asV\u2026\u307e\u3063
p5553
(lp5554
V\u305f
asV\uff5e\u3001\u3057
p5555
(lp5556
V\u3087
aV\u3087
asV\u3043\u306b\u3063
p5557
(lp5558
V\uff01
asV\u3043\u306b\u306f
p5559
(lp5560
V\u3001
aV\u672c
ag790
aV\u307e
aV\u5927
asV\u3043\u306b\u306e
p5561
(lp5562
V\u99ac
aV\u99ac
aV\u99ac
aV\u6bcd
aV\u59b9
aV\u6bcd
aV\u99ac
aV\u99ac
aV\u99ac
aV\u610f
aV\u610f
asV\uff1f\u306a\u306b
p5563
(lp5564
V\u306a
aV\u306a
aV\u306a
asV\uff5e\u3001\u305d
p5565
(lp5566
V\u3046
aV\u3046
asV\u3002\u3075\u304b
p5567
(lp5568
V\u3075
asV\u3093\u304b\u3041
p5569
(lp5570
g790
asV\u3057\u3057\u3063
p5571
(lp5572
V\uff01
ag790
ag790
ag790
aV\uff01
asV\uff5e\u3001\u304a
p5573
(lp5574
V\u5144
asV\u3082\u8a00\u3048
p5575
(lp5576
V\u308b
asV\u5f8c\u3067\u4ed6
p5577
(lp5578
V\u306e
asV\uff01\u3053\u306e
p5579
(lp5580
V\u99ac
aV\u99ac
aV\u99ac
asV\u304d\u3066\u305f
p5581
(lp5582
V\u3093
asV\u5f85\u3063\u3066
p5583
(lp5584
g790
asV\u3057\u3057\u3057
p5585
(lp5586
V\u3057
aV\u3002
aV\u3057
ag790
aV\u3057
ag790
aV\u3057
aV\u3002
aV\u3002
ag790
aV\u3063
aV\u3057
aV\uff01
aV\u3057
aV\u3002
aV\u3002
aV\u3063
aV\u3057
ag790
asV\u306f\u2026\u2026
p5587
(lp5588
g790
ag790
asV\u3043\u306b\u3042
p5589
(lp5590
V\u308a
asV\u306b\u306a\u306b
p5591
(lp5592
V\u301c
aV\u30fc
aV\u30fc
aV\u30fc
asV\u3093\u3092\u90e8
p5593
(lp5594
V\u5c4b
aV\u5c4b
asV\u308d\u3046\u304b
p5595
(lp5596
V\uff1f
asV\uff01\u3053\u305d
p5597
(lp5598
V\u3053
asV\u305d\u3046\uff1f
p5599
(lp5600
g790
ag790
asV\u3002\u671d\u3060
p5601
(lp5602
V\u3088
asV\u3093\u3068\u7d04
p5603
(lp5604
V\u675f
asV\u3093\u306e\u80f8
p5605
(lp5606
V\u3001
asV\u30e1\uff5e\u3002
p5607
(lp5608
V\u77ed
asV\u3058\u304c\u4e38
p5609
(lp5610
V\u308f
aV\u308f
asV\u304b\u3089\u3002
p5611
(lp5612
V\u3075
aV\u3075
asV\u304b\u3089\u3001
p5613
(lp5614
V\u3044
aV\u305d
aV\u305d
aV\u3044
asV\u3043\u306b\u3058
p5615
(lp5616
V\u3083
asV\u3093\u304b\u306a
p5617
(lp5618
V\u3044
asV\u3046\uff5e\u2026
p5619
(lp5620
V\u2026
aV\u2026
aV\u2026
aV\u2026
asV\u3083\u30fc\u30df
p5621
(lp5622
V\u30eb
asV\u306b\u3088\u305d
p5623
(lp5624
V\u308c
asV\u3088\uff01\uff01
p5625
(lp5626
g790
asV\u3092\u30d7\u30ec
p5627
(lp5628
V\u30bc
aV\u30bc
asV\u3066\u304a\u3081
p5629
(lp5630
V\u3067
aV\u3067
asV\u3063\u3071\u3044
p5631
(lp5632
V\uff1f
aV\uff1f
asV\u3002\u304f\u3089
p5633
(lp5634
V\u3048
asV\u2026\u3082\u3046
p5635
(lp5636
V\u3001
asV\u4f1a\u3063\u305f
p5637
(lp5638
V\u3089
asV\u671f\u5f85\u3057
p5639
(lp5640
V\u3066
asV\u30fc\uff01\uff01
p5641
(lp5642
V\u3069
ag790
ag790
asV\u3083\u30fc\u30fc
p5643
(lp5644
V\u30fc
aV\u30fc
aV\u30fc
aV\u30fc
asV\u3057\u3066\u4e0b
p5645
(lp5646
V\u3055
aV\u3055
aV\u3055
asV\u672c\u5f53\u3060
p5647
(lp5648
g790
aV\u3088
asV\u3046\u3053\u3068
p5649
(lp5650
V\u3067
aV\u306a
asV\u3093\u306a\u5b50
p5651
(lp5652
V\u4f9b
asV\uff01\u30c0\u30e1
p5653
(lp5654
V\u3060
asV\u672c\u5f53\u306b
p5655
(lp5656
V\uff01
aV\u30c0
asV\u2026\u305d\u3001
p5657
(lp5658
V\u305d
asV\u3001\u5bd2\u3044
p5659
(lp5660
V\u2026
asV\u307e\u304c\u307f
p5661
(lp5662
V\uff1f
aV\uff1f
asV\u3093\u51b7\u305f
p5663
(lp5664
V\u3044
asV\u3055\u308c\u3061
p5665
(lp5666
V\u3083
asV\u306f\u3069\u3093
p5667
(lp5668
V\u306a
asV\u8fd1\u306e\u306b
p5669
(lp5670
V\u3043
aV\u3043
aV\u3043
aV\u3043
aV\u3043
asV\u3069\u306d\uff01
p5671
(lp5672
g790
ag790
asV\u3067\u3058\u3083
p5673
(lp5674
V\u306a
aV\u306a
asV\u9055\u3046\u3063
p5675
(lp5676
V\u3066
aV\u3066
asV\u304a\u8179\u7a7a
p5677
(lp5678
V\u3044
asV\u3048\u301c\u3001
p5679
(lp5680
V\u307f
asV\u9055\u3046\u3067
p5681
(lp5682
V\u3057
asV\u3066\u3055\u2026
p5683
(lp5684
V\u2026
aV\u2026
aV\u2026
asV\u592b\u5927\u4e08
p5685
(lp5686
V\u592b
aV\u592b
aV\u592b
asV\uff01\u4eca\u3001
p5687
(lp5688
V\u3053
aV\u3053
asV\u306b\u3088\u3002
p5689
(lp5690
V\u305d
asV\u306a\u3002\u3069
p5691
(lp5692
V\u308c
aV\u308c
asV\u307e\u8089\u307e
p5693
(lp5694
V\u3093
aV\u3093
asV\u306e\u4e00\u4eba
p5695
(lp5696
V\u3082
aV\u3082
asV\u898b\u3066\u306a
p5697
(lp5698
V\u3044
asV\u4e5f\u306b\u4f55
p5699
(lp5700
V\u304b
aV\u3055
aV\u3055
aV\u304b
asV\u3044\u305f\u3002
p5701
(lp5702
V\u65e9
aV\u65e9
asV\u9055\u3046\u3051
p5703
(lp5704
V\u3069
asV\u30c0\u30e1\uff5e
p5705
(lp5706
g790
aV\u2026
aV\u3002
ag790
ag790
aV\u2026
asV\u3042\u308c\uff5e
p5707
(lp5708
V\uff1f
aV\uff1f
asV\u306d\u2026\u2026
p5709
(lp5710
g790
ag790
ag790
ag790
asV\u304f\u3082\u3046
p5711
(lp5712
V\u2026
aV\u2026
asV\u3093\u3001\u9762
p5713
(lp5714
V\u767d
asV\u3060\u304b\u3088
p5715
(lp5716
V\u304f
asV\u3060\u304b\u3089
p5717
(lp5718
V\u3088
aV\u3001
aV\u3088
aV\u3044
aV\u3088
aV\u3044
aV\u3001
aV\u30c0
ag790
aV\u306b
aV\u3044
asV\u30a4\u3001\u30e9
p5719
(lp5720
V\u30e1
asV\u304d\u307e\uff5e
p5721
(lp5722
V\uff5e
aV\uff5e
asV\u3083\u30fc\u3044
p5723
(lp5724
g790
aV\uff01
aV\uff01
asV\u9055\u3046\u3088
p5725
(lp5726
V\uff01
aV\uff01
asV\u306b\u3088\u30fc
p5727
(lp5728
V\uff01
aV\uff01
aV\u3001
asV\u4f55\u3063\u3066
p5729
(lp5730
V\u2026
asV\u305f\uff5e\u3063
p5731
(lp5732
V\uff01
asV\u60aa\u3044\u306a
p5733
(lp5734
V\u3041
asV\u3042\u3063\u3001
p5735
(lp5736
V\u3044
asV\u304c\u81ea\u5206
p5737
(lp5738
V\u3067
asV\u3083\u30fc\u306d
p5739
(lp5740
V\u3001
asV\u3083\u30fc\u306e
p5741
(lp5742
V\u53cb
aV\u8ca0
aV\u53cb
asV\u3083\u30fc\u306f
p5743
(lp5744
V\u307f
aV\u7121
asV\u306a\u4e8b\u3068
p5745
(lp5746
V\u304b
asV\u914d\u3057\u3066
p5747
(lp5748
V\u308b
asV\u306a\u4e8b\u306a
p5749
(lp5750
V\u3044
asV\u3083\u30fc\u306b
p5751
(lp5752
V\u306f
aV\u306f
aV\u304a
asV\u3001\u306b\u3043
p5753
(lp5754
V\u306b
aV\u306b
aV\u306b
aV\u306b
aV\u306b
aV\u306b
aV\u306b
aV\u306b
aV\u306b
aV\u306b
aV\u306b
aV\u306b
aV\u306b
aV\u306b
aV\u306b
aV\u306b
aV\u306b
aV\u306b
aV\u306b
aV\u306b
aV\u306b
aV\u306b
aV\u306b
aV\u306b
aV\u306b
aV\u306b
aV\u306b
asV\u2026\u2026\u6b8b
p5755
(lp5756
V\u5ff5
asV\u3083\u30fc\u3060
p5757
(lp5758
V\u3088
asV\u3083\u30fc\u3061
p5759
(lp5760
V\u3087
aV\u3087
asV\u3063\u3071\u308a
p5761
(lp5762
V\u7121
aV\u7121
aV\u7121
asV\u3042\u308c\uff1f
p5763
(lp5764
V\u304a
aV\u304a
aV\u306a
aV\u304a
asV\u3001\u5f8c\u3067
p5765
(lp5766
V\u4ed6
asV\u305f\uff5e\u3001
p5767
(lp5768
V\u7d76
asV\u304c\u304a\u5144
p5769
(lp5770
V\u3061
asV\u30fc\u3093\u2026
p5771
(lp5772
V\u2026
aV\u2026
asV\u30bb\u30f3\u30d1
p5773
(lp5774
V\u30a4
asV\u306f\u307f\u3083
p5775
(lp5776
V\u30fc
aV\u30fc
aV\u30fc
asV\u308b\u3068\u3001
p5777
(lp5778
V\u5973
aV\u5973
asV\u30eb\uff5e\u3002
p5779
(lp5780
V\u53ef
asV\u30fc\u3082\u3044
p5781
(lp5782
V\u308b
asV\u30fc\u307e\u30fc
p5783
(lp5784
V\u3001
asV\u3082\u3046\u2026
p5785
(lp5786
V\u2026
aV\u2026
aV\u2026
aV\u2026
aV\u2026
aV\u2026
asV\u3069\u3093\u306a
p5787
(lp5788
V\u4e88
asV\u30fc\u306e\u8ca0
p5789
(lp5790
V\u3051
asV\u3068\u8a00\u3044
p5791
(lp5792
V\u51fa
asV\u9023\u308c\u3066
p5793
(lp5794
V\u884c
aV\u884c
asV\u30f3\u98df\u3079
p5795
(lp5796
V\u305f
asV\u3042\u3063\u305f
p5797
(lp5798
V\uff1f
aV\u3093
aV\u306e
asV\u3063\uff1f\u7d17
p5799
(lp5800
V\u6c5f
asV\u3093\u306f\u30b9
p5801
(lp5802
V\u30b1
asV\u306e\u4e8b\u8003
p5803
(lp5804
V\u3048
asV\u308f\u3041\u3001
p5805
(lp5806
V\u53ef
asV\u7d76\u5bfe\u805e
p5807
(lp5808
V\u304b
asV\u3057\u306a\u3044
p5809
(lp5810
V\u3067
aV\u3088
asV\u305f\u308a\u524d
p5811
(lp5812
V\u3067
aV\u3058
asV\uff1f\u304a\u5144
p5813
(lp5814
V\u3061
aV\u3061
aV\u3061
aV\u3061
aV\u3061
asV\u30fc\u3002\u7f6e
p5815
(lp5816
V\u3044
asV\u826f\u3044\u3088
p5817
(lp5818
V\u306d
asV\u3053\u3089\uff01
p5819
(lp5820
V\u5f85
aV\u5f85
aV\u5f85
asV\u2026\u3002\u30c0
p5821
(lp5822
V\u30e1
aV\u30e1
asV\u306e\u53cb\u9054
p5823
(lp5824
V\u304c
aV\u304c
asV\u304c\u4e38\u308f
p5825
(lp5826
V\u304b
aV\u304b
asV\u3067\u3001\u3044
p5827
(lp5828
V\u3044
asV\u3044\u3066\uff5e
p5829
(lp5830
V\u3063
aV\u3063
aV\u3063
asV\u3063\uff01\uff1f
p5831
(lp5832
g790
aV\u3061
aV\u306b
ag790
asV\u8003\u3048\u3066
p5833
(lp5834
V\u305f
asV\u592b\u3067\u3059
p5835
(lp5836
g790
asV\uff5e\u3063\uff01
p5837
(lp5838
g790
aV\uff01
ag790
ag790
ag790
ag790
ag790
ag790
asV\u3082\u99c4\u76ee
p5839
(lp5840
V\u99c4
asV\u307e\u305f\u301c
p5841
(lp5842
g790
asV\u3042\u6c17\u6301
p5843
(lp5844
V\u3061
aV\u3061
asV\u306d\u3002\u307f
p5845
(lp5846
V\u3083
aV\u3083
asV\u304b\u3051\u3066
p5847
(lp5848
V\u304f
asV\u305f\u304f\u3082
p5849
(lp5850
V\u3046
aV\u3046
asV\u3067\u3001\u3067
p5851
(lp5852
V\u3082
aV\u3082
aV\u3082
asV\u3066\uff01\u30e0
p5853
(lp5854
V\u30c3
asV\u308c\u306f\uff1f
p5855
(lp5856
g790
asV\u3001\u30d7\u30ec
p5857
(lp5858
V\u30bc
asV\u5408\u3058\u3083
p5859
(lp5860
V\u306a
aV\u306a
asV\u307e\u305f\u306d
p5861
(lp5862
V\uff5e
aV\uff5e
asV\u306b\u306e\u6bcd
p5863
(lp5864
V\u3061
aV\u3061
asV\u3061\u306b\u9ed2
p5865
(lp5866
V\u3044
aV\u3044
asV\u51fa\u306a\u3044
p5867
(lp5868
V\u3088
asV\u308c\u306f\u7f6e
p5869
(lp5870
V\u3044
asV\u3053\u3089\uff5e
p5871
(lp5872
V\uff01
aV\uff01
asV\u305d\u306e\u2026
p5873
(lp5874
V\u2026
asV\u304f\u308c\u3070
p5875
(lp5876
V\uff1f
asV\u3068\u3070\u3063
p5877
(lp5878
V\u304b
aV\u304b
asV\u307e\u305f\u307e
p5879
(lp5880
V\u305f
aV\u305f
aV\u305f
asV\u99ac\u9e7f\u306a
p5881
(lp5882
V\u304a
aV\u304a
aV\u304a
asV\u99ac\u9e7f\u306b
p5883
(lp5884
V\u3043
aV\u3043
aV\u3043
aV\u3043
aV\u3043
aV\u3043
aV\u3043
asV\u3068\u3044\u3066
p5885
(lp5886
V\u2026
ag790
asg21
(lp5887
g790
ag790
asV\u306e\u59b9\u3060
p5888
(lp5889
V\u3088
asV\u306a\u6016\u3044
p5890
(lp5891
V\u9854
asV\u305f\u3089\u306a
p5892
(lp5893
V\u3093
aV\u3093
aV\u3093
asV\u3044\u308b\uff1f
p5894
(lp5895
g790
ag790
asV\u2026\u3002\u3059
p5896
(lp5897
V\u3063
asV\u3083\u3093\uff01
p5898
(lp5899
V\u3044
ag790
ag790
aV\u5931
ag790
asV\u304c\u307f\uff1f
p5900
(lp5901
g790
ag790
asV\u3089\u3044\u5206
p5902
(lp5903
V\u304b
aV\u304b
asV\u3083\u3093\uff1f
p5904
(lp5905
g790
ag790
ag790
ag790
ag790
asV\u3044\u308b\uff01
p5906
(lp5907
V\u3060
asV\u3067\u3001\u30c7
p5908
(lp5909
V\u30ec
asV\u2026\u3002\u304a
p5910
(lp5911
V\u5144
asV\u2026\u3002\u304f
p5912
(lp5913
V\u3089
asV\u541b\u30bf\u30aa
p5914
(lp5915
V\u30eb
asV\u3082\u3088\u308d
p5916
(lp5917
V\u3057
aV\u3057
asV\u6821\u3067\u3069
p5918
(lp5919
V\u3046
asV\u3001\u5927\u4e08
p5920
(lp5921
V\u592b
aV\u592b
aV\u592b
aV\u592b
aV\u592b
asV\u3068\u3082\u8a00
p5922
(lp5923
V\u3048
asV\u3053\u3068\u3042
p5924
(lp5925
V\u3063
aV\u3063
asV\u3046\u3068\u3082
p5926
(lp5927
V\u8a00
asV\u3001\u3059\u30fc
p5928
(lp5929
g790
asV\u3046\u304c\u306a
p5930
(lp5931
V\u3044
aV\u3044
aV\u3044
aV\u3044
aV\u3044
aV\u3044
aV\u3044
aV\u3044
aV\u3044
asV\u304b\u3075\u304b
p5932
(lp5933
V\u3060
ag790
asV\u3063\uff01\u7f8e
p5934
(lp5935
V\u4e5f
aV\u4e5f
asV\u3089\u3088\u308d
p5936
(lp5937
V\u3057
aV\u3057
aV\u3057
asV\u76ee\u3067\u3001
p5938
(lp5939
V\u3082
asV\u99ac\u9e7f\u30fc
p5940
(lp5941
V\u30fc
aV\u30fc
aV\u30fc
aV\u30fc
aV\u30fc
aV\u30fc
asV\u3089\u3063\u3066
p5942
(lp5943
V\u3082
asV\u3002\u304a\u5144
p5944
(lp5945
V\u3061
asV\u2026\u3069\u3046
p5946
(lp5947
V\u304b
aV\u304b
aV\u3057
aV\u304b
asV\u305d\u308a\u3083
p5948
(lp5949
V\u308f
aV\u5371
asV\u3068\u306f\uff1f
p5950
(lp5951
g790
asV\u308d\u3057\u304f
p5952
(lp5953
V\u306d
aV\u306d
aV\uff01
aV\u306d
aV\u306d
aV\u306d
aV\u306d
asV\u3067\u3001\u3082
p5954
(lp5955
V\u3046
asV\u6700\u8fd1\u9854
p5956
(lp5957
V\u8272
asV\u308a\u3083\u5371
p5958
(lp5959
V\u306a
asV\u3044\u3044\u8a71
p5960
(lp5961
V\u3063
asV\u5371\u306a\u3044
p5962
(lp5963
V\uff01
asV\u4ef2\u3044\u3044
p5964
(lp5965
V\u3088
aV\u3088
asV\u306a\u5927\u76db
p5966
(lp5967
V\u308a
asV\u304d\u9b54\u3060
p5968
(lp5969
V\uff01
aV\uff01
aV\uff01
aV\uff01
asV\u3044\u59b9\u3060
p5970
(lp5971
V\u306d
asV\u3067\u304a\u5144
p5972
(lp5973
V\u3061
asV\u3093\u3060\u304b
p5974
(lp5975
V\u3089
aV\u3088
aV\u3089
aV\u3089
aV\u3089
asV\u30fc\u306d\u3001
p5976
(lp5977
V\u30c1
asV\u308c\u3067\u3001
p5978
(lp5979
V\u3044
asV\u306a\u306e\uff5e
p5980
(lp5981
V\uff01
asV\u3001\u2026\u2026
p5982
(lp5983
V\u3063
asV\u3068\u308a\u3083
p5984
(lp5985
V\u30fc
asV\u4eca\u65e5\u306e
p5986
(lp5987
V\u6669
asV\u4eca\u65e5\u306f
p5988
(lp5989
V\u5929
aV\u307f
aV\u5bc4
aV\u65e9
aV\u5927
aV\u5bb6
aV\u5bb6
aV\u5bc4
aV\u307f
asV\u3045\uff5e\u3093
p5990
(lp5991
V\u3001
aV\u3001
asV\u306b\u6765\u308b
p5992
(lp5993
V\u306e
aV\u306e
asV\u3071\u308a\u7121
p5994
(lp5995
V\u7406
aV\u7406
aV\u7406
asV\u3061\u3087\u3001
p5996
(lp5997
V\u3061
aV\u3061
asV\u3068\u98df\u3044
p5998
(lp5999
V\u3064
aV\u3064
asV\u307e\u3060\u307e
p6000
(lp6001
V\u3060
asV\u308f\u30fc\u3044
p6002
(lp6003
V\u3042
asV\u3044\u3058\u3083
p6004
(lp6005
V\u306a
aV\u306a
aV\u3093
asV\u3066\u4e0b\u3055
p6006
(lp6007
V\u3044
aV\u3044
aV\u3044
asV\u304a\u307b\u3093
p6008
(lp6009
V\u2026
asV\u3061\u3087\u3063
p6010
(lp6011
V\u3068
aV\u3068
aV\u3068
aV\u3068
aV\u3068
aV\u3068
aV\u3068
aV\u3068
aV\u3068
aV\u3068
aV\u3068
asV\u3046\u3084\u304f
p6012
(lp6013
V\u8a00
aV\u8a00
aV\u8a00
asV\u30fc\u3089\u3057
p6014
(lp6015
V\u3043
asV\uff01\u81ea\u4fe1
p6016
(lp6017
V\u3082
aV\u3082
asV\u308b\u3055\u3044
p6018
(lp6019
V\uff01
aV\u99ac
aV\uff01
asV\u6b8b\u5ff5\u3060
p6020
(lp6021
V\u306d
aV\u3063
asV\u306e\u3053\u3068
p6022
(lp6023
V\uff1f
asV\u3069\u3053\u306b
p6024
(lp6025
V\u3044
aV\u3044
asV\u3044\u3088\u3002
p6026
(lp6027
V\u6642
asV\u3093\u306f\u3001
p6028
(lp6029
V\u4f55
asV\u3089\u30c0\u30e1
p6030
(lp6031
V\u304b
aV\u304b
aV\uff01
aV\u306a
asV\u308c\u3058\u3083
p6032
(lp6033
V\u3042
aV\u3042
aV\u3042
aV\u3042
aV\u3001
aV\u3042
aV\u3042
aV\u3042
aV\u3001
asV\u99ac\u9e7f\u5144
p6034
(lp6035
V\u3061
asV\u304b\u3088\u304f
p6036
(lp6037
V\u308f
asV\u3093\u3002\u4eca
p6038
(lp6039
V\u65e5
asV\u7269\u306f\u30c0
p6040
(lp6041
V\u30e1
asV\u308c\u3067\u308c
p6042
(lp6043
V\u3057
asV\u3066\u3053\u3068
p6044
(lp6045
V\u306f
asV\u3046\u3084\u308d
p6046
(lp6047
V\u3046
aV\u3046
asV\u6b73\u3057\u3066
p6048
(lp6049
V\u5f7c
aV\u5f7c
asV\u305f\u3060\u3063
p6050
(lp6051
V\u304d
aV\u304d
asV\u3044\u306e\u30fc
p6052
(lp6053
g790
ag790
asV\u305b\u3066\u4efb
p6054
(lp6055
V\u305b
aV\u305b
asV\u4f55\u304b\u3044
p6056
(lp6057
V\u3044
aV\u3044
asV\u3066\uff5e\u3063
p6058
(lp6059
V\uff01
aV\uff01
aV\uff01
asV\u3046\u3093\u2026
p6060
(lp6061
V\u2026
aV\u2026
aV\u2026
aV\u2026
aV\u2026
aV\u2026
aV\u2026
aV\u2026
aV\u2026
aV\u2026
aV\u2026
asV\u5bb6\u306b\u5e30
p6062
(lp6063
V\u308b
aV\u308b
asV\u8cd1\u3084\u304b
p6064
(lp6065
V\u3063
asV\u306b\u3043\u306b
p6066
(lp6067
V\u306e
aV\uff01
aV\uff01
ag790
aV\u3001
aV\u30fc
aV\u2026
aV\u3001
aV\u306e
aV\u3001
aV\u2026
ag790
aV\u306f
aV\uff1f
aV\uff1f
ag790
aV\uff01
aV\u306e
aV\u2026
aV\u306e
aV\u3001
aV\u3042
ag790
aV\u3001
aV\u3001
ag790
aV\u3001
ag790
aV\u306e
aV\u306f
ag790
aV\uff5e
aV\uff01
aV\u2026
aV\u30fc
ag790
aV\u3001
aV\u306e
aV\uff01
aV\u3063
ag790
aV\u3001
aV\u3001
aV\uff01
ag790
aV\u306f
aV\u2026
ag790
aV\u3001
ag790
aV\u3001
aV\uff1f
aV\u3068
aV\u3001
aV\u306e
aV\u3001
ag790
aV\u3001
ag790
aV\u3001
aV\u306e
aV\u2026
ag790
aV\u306e
aV\uff1f
aV\u306e
aV\u3001
aV\u3001
aV\u3001
aV\uff1f
aV\uff01
ag790
aV\uff01
aV\u2026
ag790
aV\u3001
aV\u3001
aV\u3001
aV\u3001
aV\u3001
aV\uff01
ag790
aV\u3001
aV\uff01
aV\uff1f
aV\uff01
ag790
aV\u3001
aV\u3001
aV\u3001
aV\u3001
aV\u3001
aV\uff01
ag790
aV\u3001
aV\u3001
ag790
aV\u3001
aV\uff01
aV\u2026
aV\u3001
ag790
aV\u3001
aV\u3001
aV\u2026
aV\u3001
aV\u3001
aV\u306f
aV\uff01
aV\u2026
aV\u3001
aV\uff1f
aV\u306e
aV\u3001
aV\u306f
aV\u3001
aV\u3058
aV\u3001
aV\u3001
ag790
aV\u3001
aV\u3001
asV\u305f\u3060\u3044
p6068
(lp6069
V\u307e
aV\u307e
asV\u3066\u304f\u308c
p6070
(lp6071
V\u3070
asV\u30ed\u30ec\u30b9
p6072
(lp6073
V\u266a
aV\u266a
asV\u8ab0\u3082\u898b
p6074
(lp6075
V\u3066
asV\u3066\u304f\u308b
p6076
(lp6077
V\u306a
aV\u306a
asV\u308b\uff01\u3060
p6078
(lp6079
V\u304b
asV\u3066\u305d\u3046
p6080
(lp6081
V\u3058
asV\u3069\u308c\uff1f
p6082
(lp6083
g790
ag790
asV\u4f55\u3057\u306b
p6084
(lp6085
V\u304d
asV\u3045\uff5e\u3063
p6086
(lp6087
g790
ag790
asV\u3089\u640d\u3057
p6088
(lp6089
V\u305f
aV\u305f
asV\u3093\u306e\u3051
p6090
(lp6091
V\u3061
asV\u4f55\u3057\u3066
p6092
(lp6093
V\u308b
aV\u308b
aV\u305f
aV\u308b
aV\u308b
aV\u308b
aV\u308b
aV\u305f
aV\u308b
asV\u2026\u2026\u3084
p6094
(lp6095
V\u30fc
asV\u4f55\u3057\u305f
p6096
(lp6097
V\u306e
asV\u3044\u3044\u6b73
p6098
(lp6099
V\u3057
aV\u3057
asV\u4eca\u65e5\u3082
p6100
(lp6101
V\u3075
aV\u3084
asV\uff1f\u3069\u308c
p6102
(lp6103
V\u306e
asV\u3047\u3001\u3061
p6104
(lp6105
V\u3083
asV\u4f55\u304b\u7528
p6106
(lp6107
V\u4e8b
aV\u4e8b
asV\u3063\u3070\u3070
p6108
(lp6109
V\u30fc
aV\u30fc
asV\u3060\u307e\u3060
p6110
(lp6111
V\u3053
asV\u306f\u307e\u3060
p6112
(lp6113
V\u30fc
asV\u3089\u3063\u3057
p6114
(lp6115
V\u3083
aV\u3083
asV\u306a\u8a00\u3044
p6116
(lp6117
V\u65b9
aV\u65b9
as.